(lp0
(lp1
(lp2
I0
a(lp3
I1
aI2
aaa(lp4
I1
a(lp5
I1
aI2
aaa(lp6
I2
a(lp7
I1
aI2
aaa(lp8
I3
a(lp9
I1
aI2
aaa(lp10
I4
a(lp11
I1
aI3
aaa(lp12
I5
a(lp13
I1
aI3
aaa(lp14
I6
a(lp15
I1
aI3
aaa(lp16
I7
a(lp17
I1
aI3
aaa(lp18
I0
a(lp19
I1
aI2
aaa(lp20
I1
a(lp21
I1
aI2
aaa(lp22
I2
a(lp23
I1
aI2
aaa(lp24
I3
a(lp25
I1
aI2
aaa(lp26
I4
a(lp27
I1
aI3
aaa(lp28
I5
a(lp29
I1
aI3
aaa(lp30
I6
a(lp31
I1
aI3
aaa(lp32
I7
a(lp33
I1
aI3
aaa(lp34
I0
a(lp35
I1
aI2
aaa(lp36
I1
a(lp37
I1
aI2
aaa(lp38
I2
a(lp39
I1
aI2
aaa(lp40
I3
a(lp41
I1
aI2
aaa(lp42
I4
a(lp43
I1
aI3
aaa(lp44
I5
a(lp45
I1
aI3
aaa(lp46
I6
a(lp47
I1
aI3
aaa(lp48
I7
a(lp49
I1
aI3
aaa(lp50
I0
a(lp51
I1
aI2
aaa(lp52
I1
a(lp53
I1
aI2
aaa(lp54
I2
a(lp55
I1
aI2
aaa(lp56
I3
a(lp57
I1
aI2
aaa(lp58
I4
a(lp59
I1
aI3
aaa(lp60
I5
a(lp61
I1
aI3
aaa(lp62
I6
a(lp63
I1
aI3
aaa(lp64
I7
a(lp65
I1
aI3
aaa(lp66
I0
a(lp67
I1
aI2
aaa(lp68
I1
a(lp69
I1
aI2
aaa(lp70
I2
a(lp71
I1
aI2
aaa(lp72
I3
a(lp73
I3
aI1
aI2
aaa(lp74
I4
a(lp75
I1
aI3
aaa(lp76
I5
a(lp77
I1
aI3
aaa(lp78
I6
a(lp79
I1
aI3
aaa(lp80
I7
a(lp81
I1
aI3
aaa(lp82
I0
a(lp83
I1
aI2
aaa(lp84
I1
a(lp85
I1
aI2
aaa(lp86
I2
a(lp87
I1
aI2
aaa(lp88
I3
a(lp89
I1
aI2
aaa(lp90
I4
a(lp91
I1
aI3
aaa(lp92
I5
a(lp93
I3
aI1
aaa(lp94
I6
a(lp95
I1
aI3
aaa(lp96
I7
a(lp97
I1
aI3
aaa(lp98
I0
a(lp99
I1
aI2
aaa(lp100
I1
a(lp101
I1
aI2
aaa(lp102
I2
a(lp103
I1
aI2
aaa(lp104
I3
a(lp105
I1
aI2
aaa(lp106
I4
a(lp107
I1
aI3
aaa(lp108
I5
a(lp109
I1
aI3
aaa(lp110
I6
a(lp111
I1
aI3
aaa(lp112
I7
a(lp113
I1
aI3
aaa(lp114
I0
a(lp115
I1
aI2
aaa(lp116
I1
a(lp117
I1
aI2
aaa(lp118
I2
a(lp119
I1
aI2
aaa(lp120
I3
a(lp121
I1
aI2
aaa(lp122
I4
a(lp123
I1
aI3
aaa(lp124
I5
a(lp125
I1
aI3
aaa(lp126
I6
a(lp127
I1
aI3
aaa(lp128
I7
a(lp129
I1
aI3
aaa(lp130
I0
a(lp131
I1
aI2
aaa(lp132
I1
a(lp133
I1
aI2
aaa(lp134
I2
a(lp135
I1
aI2
aaa(lp136
I3
a(lp137
I1
aI2
aaa(lp138
I4
a(lp139
I1
aI3
aaa(lp140
I5
a(lp141
I1
aI3
aaa(lp142
I6
a(lp143
I1
aI3
aaa(lp144
I7
a(lp145
I1
aI3
aaaa(lp146
(lp147
I0
a(lp148
I1
aI2
aaa(lp149
I1
a(lp150
I1
aI2
aaa(lp151
I2
a(lp152
I1
aI2
aaa(lp153
I3
a(lp154
I1
aI2
aaa(lp155
I4
a(lp156
I1
aI3
aaa(lp157
I5
a(lp158
I1
aI3
aaa(lp159
I6
a(lp160
I1
aI3
aaa(lp161
I7
a(lp162
I1
aI3
aaa(lp163
I0
a(lp164
I1
aI2
aaa(lp165
I1
a(lp166
I1
aI2
aaa(lp167
I2
a(lp168
I1
aI2
aaa(lp169
I3
a(lp170
I1
aI2
aaa(lp171
I4
a(lp172
I1
aI3
aaa(lp173
I5
a(lp174
I1
aI3
aaa(lp175
I6
a(lp176
I1
aI3
aaa(lp177
I7
a(lp178
I1
aI3
aaa(lp179
I0
a(lp180
I1
aI2
aaa(lp181
I1
a(lp182
I1
aI2
aaa(lp183
I2
a(lp184
I1
aI2
aaa(lp185
I3
a(lp186
I1
aI2
aaa(lp187
I4
a(lp188
I1
aI3
aaa(lp189
I5
a(lp190
I1
aI3
aaa(lp191
I6
a(lp192
I1
aI3
aaa(lp193
I7
a(lp194
I1
aI3
aaa(lp195
I0
a(lp196
I1
aI2
aaa(lp197
I1
a(lp198
I1
aI2
aaa(lp199
I2
a(lp200
I1
aI2
aaa(lp201
I3
a(lp202
I1
aI2
aaa(lp203
I4
a(lp204
I1
aI3
aaa(lp205
I5
a(lp206
I1
aI3
aaa(lp207
I6
a(lp208
I1
aI3
aaa(lp209
I7
a(lp210
I1
aI3
aaa(lp211
I0
a(lp212
I1
aI2
aaa(lp213
I1
a(lp214
I1
aI2
aaa(lp215
I2
a(lp216
I1
aI2
aaa(lp217
I3
a(lp218
I1
aI2
aaa(lp219
I4
a(lp220
I1
aI3
aaa(lp221
I5
a(lp222
I1
aI3
aaa(lp223
I6
a(lp224
I1
aI3
aaa(lp225
I7
a(lp226
I1
aI3
aaa(lp227
I0
a(lp228
I1
aI2
aaa(lp229
I1
a(lp230
I1
aI2
aaa(lp231
I2
a(lp232
I1
aI2
aaa(lp233
I3
a(lp234
I1
aI2
aaa(lp235
I4
a(lp236
I1
aI3
aaa(lp237
I5
a(lp238
I1
aI3
aaa(lp239
I6
a(lp240
I1
aI3
aaa(lp241
I7
a(lp242
I1
aI3
aaa(lp243
I0
a(lp244
I1
aI2
aaa(lp245
I1
a(lp246
I1
aI2
aaa(lp247
I2
a(lp248
I1
aI2
aaa(lp249
I3
a(lp250
I1
aI2
aaa(lp251
I4
a(lp252
I1
aI3
aaa(lp253
I5
a(lp254
I1
aI3
aaa(lp255
I6
a(lp256
I1
aI3
aaa(lp257
I7
a(lp258
I1
aI3
aaa(lp259
I0
a(lp260
I1
aI2
aaa(lp261
I1
a(lp262
I1
aI2
aaa(lp263
I2
a(lp264
I1
aI2
aaa(lp265
I3
a(lp266
I1
aI2
aaa(lp267
I4
a(lp268
I1
aI3
aaa(lp269
I5
a(lp270
I1
aI3
aaa(lp271
I6
a(lp272
I1
aI3
aaa(lp273
I7
a(lp274
I1
aI3
aaa(lp275
I0
a(lp276
I1
aI2
aaa(lp277
I1
a(lp278
I1
aI2
aaa(lp279
I2
a(lp280
I3
aI1
aI2
aaa(lp281
I3
a(lp282
I1
aI2
aaa(lp283
I4
a(lp284
I1
aI3
aaa(lp285
I5
a(lp286
I1
aI3
aaa(lp287
I6
a(lp288
I1
aI3
aaa(lp289
I7
a(lp290
I1
aI3
aaaa(lp291
(lp292
I0
a(lp293
I1
aI2
aaa(lp294
I1
a(lp295
I1
aI2
aaa(lp296
I2
a(lp297
I1
aI2
aaa(lp298
I3
a(lp299
I1
aI2
aaa(lp300
I4
a(lp301
I1
aI3
aaa(lp302
I5
a(lp303
I1
aI3
aaa(lp304
I6
a(lp305
I1
aI3
aaa(lp306
I7
a(lp307
I1
aI3
aaa(lp308
I0
a(lp309
I1
aI2
aaa(lp310
I1
a(lp311
I1
aI2
aaa(lp312
I2
a(lp313
I1
aI2
aaa(lp314
I3
a(lp315
I1
aI2
aaa(lp316
I4
a(lp317
I1
aI3
aaa(lp318
I5
a(lp319
I1
aI3
aaa(lp320
I6
a(lp321
I1
aI3
aaa(lp322
I7
a(lp323
I1
aI3
aaa(lp324
I0
a(lp325
I1
aI2
aaa(lp326
I1
a(lp327
I1
aI2
aaa(lp328
I2
a(lp329
I1
aI2
aaa(lp330
I3
a(lp331
I1
aI2
aaa(lp332
I4
a(lp333
I1
aI3
aaa(lp334
I5
a(lp335
I1
aI3
aaa(lp336
I6
a(lp337
I1
aI3
aaa(lp338
I7
a(lp339
I1
aI3
aaa(lp340
I0
a(lp341
I1
aI2
aaa(lp342
I1
a(lp343
I1
aI2
aaa(lp344
I2
a(lp345
I1
aI2
aaa(lp346
I3
a(lp347
I1
aI2
aaa(lp348
I4
a(lp349
I1
aI3
aaa(lp350
I5
a(lp351
I1
aI3
aaa(lp352
I6
a(lp353
I1
aI3
aaa(lp354
I7
a(lp355
I1
aI3
aaa(lp356
I0
a(lp357
I1
aI2
aaa(lp358
I1
a(lp359
I1
aI2
aaa(lp360
I2
a(lp361
I1
aI2
aaa(lp362
I3
a(lp363
I1
aI2
aaa(lp364
I4
a(lp365
I1
aI3
aaa(lp366
I5
a(lp367
I1
aI3
aaa(lp368
I6
a(lp369
I1
aI3
aaa(lp370
I7
a(lp371
I1
aI3
aaa(lp372
I0
a(lp373
I1
aI2
aaa(lp374
I1
a(lp375
I1
aI2
aaa(lp376
I2
a(lp377
I2
aI1
aaa(lp378
I3
a(lp379
I1
aI2
aaa(lp380
I4
a(lp381
I1
aI3
aaa(lp382
I5
a(lp383
I1
aI3
aaa(lp384
I6
a(lp385
I1
aI3
aaa(lp386
I7
a(lp387
I1
aI3
aaa(lp388
I0
a(lp389
I1
aI2
aaa(lp390
I1
a(lp391
I1
aI2
aaa(lp392
I2
a(lp393
I1
aI2
aaa(lp394
I3
a(lp395
I1
aI2
aaa(lp396
I4
a(lp397
I1
aI3
aaa(lp398
I5
a(lp399
I1
aI3
aaa(lp400
I6
a(lp401
I1
aI3
aaa(lp402
I7
a(lp403
I1
aI3
aaa(lp404
I0
a(lp405
I3
aI1
aI2
aaa(lp406
I1
a(lp407
I1
aI2
aaa(lp408
I2
a(lp409
I1
aI2
aaa(lp410
I3
a(lp411
I1
aI2
aaa(lp412
I4
a(lp413
I1
aI3
aaa(lp414
I5
a(lp415
I1
aI3
aaa(lp416
I6
a(lp417
I1
aI3
aaa(lp418
I7
a(lp419
I1
aI3
aaa(lp420
I0
a(lp421
I1
aI2
aaa(lp422
I1
a(lp423
I1
aI2
aaa(lp424
I2
a(lp425
I1
aI2
aaa(lp426
I3
a(lp427
I1
aI2
aaa(lp428
I4
a(lp429
I1
aI3
aaa(lp430
I5
a(lp431
I1
aI3
aaa(lp432
I6
a(lp433
I1
aI3
aaa(lp434
I7
a(lp435
I1
aI3
aaaa(lp436
(lp437
I0
a(lp438
I1
aI2
aaa(lp439
I1
a(lp440
I1
aI2
aaa(lp441
I2
a(lp442
I1
aI2
aaa(lp443
I3
a(lp444
I1
aI2
aaa(lp445
I4
a(lp446
I1
aI3
aaa(lp447
I5
a(lp448
I1
aI3
aaa(lp449
I6
a(lp450
I1
aI3
aaa(lp451
I7
a(lp452
I1
aI3
aaa(lp453
I0
a(lp454
I1
aI2
aaa(lp455
I1
a(lp456
I1
aI2
aaa(lp457
I2
a(lp458
I1
aI2
aaa(lp459
I3
a(lp460
I1
aI2
aaa(lp461
I4
a(lp462
I1
aI3
aaa(lp463
I5
a(lp464
I1
aI3
aaa(lp465
I6
a(lp466
I1
aI3
aaa(lp467
I7
a(lp468
I1
aI3
aaa(lp469
I0
a(lp470
I1
aI2
aaa(lp471
I1
a(lp472
I1
aI2
aaa(lp473
I2
a(lp474
I1
aI2
aaa(lp475
I3
a(lp476
I1
aI2
aaa(lp477
I4
a(lp478
I1
aI3
aaa(lp479
I5
a(lp480
I1
aI3
aaa(lp481
I6
a(lp482
I1
aI3
aaa(lp483
I7
a(lp484
I1
aI3
aaa(lp485
I0
a(lp486
I1
aI2
aaa(lp487
I1
a(lp488
I1
aI2
aaa(lp489
I2
a(lp490
I1
aI2
aaa(lp491
I3
a(lp492
I1
aI2
aaa(lp493
I4
a(lp494
I1
aI3
aaa(lp495
I5
a(lp496
I1
aI3
aaa(lp497
I6
a(lp498
I1
aI3
aaa(lp499
I7
a(lp500
I1
aI3
aaa(lp501
I0
a(lp502
I1
aI2
aaa(lp503
I1
a(lp504
I1
aI2
aaa(lp505
I2
a(lp506
I1
aI2
aaa(lp507
I3
a(lp508
I1
aI2
aaa(lp509
I4
a(lp510
I1
aI3
aaa(lp511
I5
a(lp512
I1
aI3
aaa(lp513
I6
a(lp514
I1
aI3
aaa(lp515
I7
a(lp516
I1
aI3
aaa(lp517
I0
a(lp518
I1
aI2
aaa(lp519
I1
a(lp520
I1
aI2
aaa(lp521
I2
a(lp522
I1
aI2
aaa(lp523
I3
a(lp524
I1
aI2
aaa(lp525
I4
a(lp526
I1
aI3
aaa(lp527
I5
a(lp528
I1
aI3
aaa(lp529
I6
a(lp530
I1
aI3
aaa(lp531
I7
a(lp532
I1
aI3
aaa(lp533
I0
a(lp534
I1
aI2
aaa(lp535
I1
a(lp536
I1
aI2
aaa(lp537
I2
a(lp538
I1
aI2
aaa(lp539
I3
a(lp540
I3
aI1
aI2
aaa(lp541
I4
a(lp542
I1
aI3
aaa(lp543
I5
a(lp544
I1
aI3
aaa(lp545
I6
a(lp546
I1
aI3
aaa(lp547
I7
a(lp548
I1
aI3
aaa(lp549
I0
a(lp550
I1
aI2
aaa(lp551
I1
a(lp552
I1
aI2
aaa(lp553
I2
a(lp554
I1
aI2
aaa(lp555
I3
a(lp556
I1
aI2
aaa(lp557
I4
a(lp558
I1
aI3
aaa(lp559
I5
a(lp560
I1
aI3
aaa(lp561
I6
a(lp562
I1
aI3
aaa(lp563
I7
a(lp564
I1
aI3
aaa(lp565
I0
a(lp566
I1
aI2
aaa(lp567
I1
a(lp568
I1
aI2
aaa(lp569
I2
a(lp570
I1
aI2
aaa(lp571
I3
a(lp572
I1
aI2
aaa(lp573
I4
a(lp574
I1
aI3
aaa(lp575
I5
a(lp576
I1
aI3
aaa(lp577
I6
a(lp578
I1
aI3
aaa(lp579
I7
a(lp580
I1
aI3
aaaa(lp581
(lp582
I0
a(lp583
I1
aI2
aaa(lp584
I1
a(lp585
I1
aI2
aaa(lp586
I2
a(lp587
I1
aI2
aaa(lp588
I3
a(lp589
I1
aI2
aaa(lp590
I4
a(lp591
I1
aI3
aaa(lp592
I5
a(lp593
I1
aI3
aaa(lp594
I6
a(lp595
I1
aI3
aaa(lp596
I7
a(lp597
I1
aI3
aaa(lp598
I0
a(lp599
I1
aI2
aaa(lp600
I1
a(lp601
I1
aI2
aaa(lp602
I2
a(lp603
I1
aI2
aaa(lp604
I3
a(lp605
I1
aI2
aaa(lp606
I4
a(lp607
I1
aI3
aaa(lp608
I5
a(lp609
I1
aI3
aaa(lp610
I6
a(lp611
I1
aI3
aaa(lp612
I7
a(lp613
I1
aI3
aaa(lp614
I0
a(lp615
I1
aI2
aaa(lp616
I1
a(lp617
I1
aI2
aaa(lp618
I2
a(lp619
I1
aI2
aaa(lp620
I3
a(lp621
I1
aI2
aaa(lp622
I4
a(lp623
I1
aI3
aaa(lp624
I5
a(lp625
I2
aI1
aI3
aaa(lp626
I6
a(lp627
I1
aI3
aaa(lp628
I7
a(lp629
I1
aI3
aaa(lp630
I0
a(lp631
I1
aI2
aaa(lp632
I1
a(lp633
I1
aI2
aaa(lp634
I2
a(lp635
I1
aI2
aaa(lp636
I3
a(lp637
I1
aI2
aaa(lp638
I4
a(lp639
I1
aI3
aaa(lp640
I5
a(lp641
I1
aI3
aaa(lp642
I6
a(lp643
I1
aI3
aaa(lp644
I7
a(lp645
I2
aI1
aI3
aaa(lp646
I0
a(lp647
I1
aI2
aaa(lp648
I1
a(lp649
I1
aI2
aaa(lp650
I2
a(lp651
I1
aI2
aaa(lp652
I3
a(lp653
I1
aI2
aaa(lp654
I4
a(lp655
I1
aI3
aaa(lp656
I5
a(lp657
I1
aI3
aaa(lp658
I6
a(lp659
I1
aI3
aaa(lp660
I7
a(lp661
I1
aI3
aaa(lp662
I0
a(lp663
I1
aI2
aaa(lp664
I1
a(lp665
I1
aI2
aaa(lp666
I2
a(lp667
I1
aI2
aaa(lp668
I3
a(lp669
I1
aI2
aaa(lp670
I4
a(lp671
I1
aI3
aaa(lp672
I5
a(lp673
I1
aI3
aaa(lp674
I6
a(lp675
I1
aI3
aaa(lp676
I7
a(lp677
I1
aI3
aaa(lp678
I0
a(lp679
I1
aI2
aaa(lp680
I1
a(lp681
I1
aI2
aaa(lp682
I2
a(lp683
I1
aI2
aaa(lp684
I3
a(lp685
I1
aI2
aaa(lp686
I4
a(lp687
I1
aI3
aaa(lp688
I5
a(lp689
I1
aI3
aaa(lp690
I6
a(lp691
I1
aI3
aaa(lp692
I7
a(lp693
I1
aI3
aaa(lp694
I0
a(lp695
I1
aI2
aaa(lp696
I1
a(lp697
I1
aI2
aaa(lp698
I2
a(lp699
I1
aI2
aaa(lp700
I3
a(lp701
I1
aI2
aaa(lp702
I4
a(lp703
I1
aI3
aaa(lp704
I5
a(lp705
I1
aI3
aaa(lp706
I6
a(lp707
I1
aI3
aaa(lp708
I7
a(lp709
I1
aI3
aaa(lp710
I0
a(lp711
I1
aI2
aaa(lp712
I1
a(lp713
I1
aI2
aaa(lp714
I2
a(lp715
I1
aI2
aaa(lp716
I3
a(lp717
I1
aI2
aaa(lp718
I4
a(lp719
I1
aI3
aaa(lp720
I5
a(lp721
I1
aI3
aaa(lp722
I6
a(lp723
I1
aI3
aaa(lp724
I7
a(lp725
I1
aI3
aaaa(lp726
(lp727
I0
a(lp728
I1
aI2
aaa(lp729
I1
a(lp730
I1
aI2
aaa(lp731
I2
a(lp732
I1
aI2
aaa(lp733
I3
a(lp734
I1
aI2
aaa(lp735
I4
a(lp736
I1
aI3
aaa(lp737
I5
a(lp738
I1
aI3
aaa(lp739
I6
a(lp740
I1
aI3
aaa(lp741
I7
a(lp742
I1
aI3
aaa(lp743
I0
a(lp744
I1
aI2
aaa(lp745
I1
a(lp746
I1
aI2
aaa(lp747
I2
a(lp748
I1
aI2
aaa(lp749
I3
a(lp750
I1
aI2
aaa(lp751
I4
a(lp752
I1
aI3
aaa(lp753
I5
a(lp754
I1
aI3
aaa(lp755
I6
a(lp756
I1
aI3
aaa(lp757
I7
a(lp758
I1
aI3
aaa(lp759
I0
a(lp760
I1
aI2
aaa(lp761
I1
a(lp762
I1
aI2
aaa(lp763
I2
a(lp764
I1
aI2
aaa(lp765
I3
a(lp766
I1
aI2
aaa(lp767
I4
a(lp768
I1
aI3
aaa(lp769
I5
a(lp770
I1
aI3
aaa(lp771
I6
a(lp772
I1
aI3
aaa(lp773
I7
a(lp774
I1
aI3
aaa(lp775
I0
a(lp776
I1
aI2
aaa(lp777
I1
a(lp778
I1
aI2
aaa(lp779
I2
a(lp780
I1
aI2
aaa(lp781
I3
a(lp782
I1
aI2
aaa(lp783
I4
a(lp784
I1
aI3
aaa(lp785
I5
a(lp786
I1
aI3
aaa(lp787
I6
a(lp788
I1
aI3
aaa(lp789
I7
a(lp790
I1
aI3
aaa(lp791
I0
a(lp792
I1
aI2
aaa(lp793
I1
a(lp794
I1
aI2
aaa(lp795
I2
a(lp796
I1
aI2
aaa(lp797
I3
a(lp798
I1
aI2
aaa(lp799
I4
a(lp800
I1
aI3
aaa(lp801
I5
a(lp802
I1
aI3
aaa(lp803
I6
a(lp804
I1
aI3
aaa(lp805
I7
a(lp806
I1
aI3
aaa(lp807
I0
a(lp808
I1
aI2
aaa(lp809
I1
a(lp810
I1
aI2
aaa(lp811
I2
a(lp812
I1
aI2
aaa(lp813
I3
a(lp814
I1
aI2
aaa(lp815
I4
a(lp816
I1
aI3
aaa(lp817
I5
a(lp818
I1
aI3
aaa(lp819
I6
a(lp820
I1
aI3
aaa(lp821
I7
a(lp822
I1
aI3
aaa(lp823
I0
a(lp824
I1
aI2
aaa(lp825
I1
a(lp826
I1
aI2
aaa(lp827
I2
a(lp828
I1
aI2
aaa(lp829
I3
a(lp830
I1
aI2
aaa(lp831
I4
a(lp832
I1
aI3
aaa(lp833
I5
a(lp834
I1
aI3
aaa(lp835
I6
a(lp836
I1
aI3
aaa(lp837
I7
a(lp838
I1
aI3
aaa(lp839
I0
a(lp840
I1
aI2
aaa(lp841
I1
a(lp842
I1
aI2
aaa(lp843
I2
a(lp844
I1
aI2
aaa(lp845
I3
a(lp846
I1
aI2
aaa(lp847
I4
a(lp848
I1
aI3
aaa(lp849
I5
a(lp850
I1
aI3
aaa(lp851
I6
a(lp852
I1
aI3
aaa(lp853
I7
a(lp854
I1
aI3
aaa(lp855
I0
a(lp856
I1
aI2
aaa(lp857
I1
a(lp858
I1
aI2
aaa(lp859
I2
a(lp860
I1
aI2
aaa(lp861
I3
a(lp862
I1
aI2
aaa(lp863
I4
a(lp864
I1
aI3
aaa(lp865
I5
a(lp866
I1
aI3
aaa(lp867
I6
a(lp868
I1
aI3
aaa(lp869
I7
a(lp870
I1
aI3
aaaa(lp871
(lp872
I0
a(lp873
I1
aI2
aaa(lp874
I1
a(lp875
I1
aI2
aaa(lp876
I2
a(lp877
I1
aI2
aaa(lp878
I3
a(lp879
I1
aI2
aaa(lp880
I4
a(lp881
I1
aI3
aaa(lp882
I5
a(lp883
I1
aI3
aaa(lp884
I6
a(lp885
I1
aI3
aaa(lp886
I7
a(lp887
I1
aI3
aaa(lp888
I0
a(lp889
I1
aI2
aaa(lp890
I1
a(lp891
I1
aI2
aaa(lp892
I2
a(lp893
I1
aI2
aaa(lp894
I3
a(lp895
I1
aI2
aaa(lp896
I4
a(lp897
I1
aI3
aaa(lp898
I5
a(lp899
I1
aI3
aaa(lp900
I6
a(lp901
I1
aI3
aaa(lp902
I7
a(lp903
I1
aI3
aaa(lp904
I0
a(lp905
I1
aI2
aaa(lp906
I1
a(lp907
I1
aI2
aaa(lp908
I2
a(lp909
I1
aI2
aaa(lp910
I3
a(lp911
I1
aI2
aaa(lp912
I4
a(lp913
I1
aI3
aaa(lp914
I5
a(lp915
I1
aI3
aaa(lp916
I6
a(lp917
I1
aI3
aaa(lp918
I7
a(lp919
I1
aI3
aaa(lp920
I0
a(lp921
I1
aI2
aaa(lp922
I1
a(lp923
I1
aI2
aaa(lp924
I2
a(lp925
I1
aI2
aaa(lp926
I3
a(lp927
I1
aI2
aaa(lp928
I4
a(lp929
I1
aI3
aaa(lp930
I5
a(lp931
I1
aI3
aaa(lp932
I6
a(lp933
I1
aI3
aaa(lp934
I7
a(lp935
I1
aI3
aaa(lp936
I0
a(lp937
I1
aI2
aaa(lp938
I1
a(lp939
I1
aI2
aaa(lp940
I2
a(lp941
I1
aI2
aaa(lp942
I3
a(lp943
I1
aI2
aaa(lp944
I4
a(lp945
I1
aI3
aaa(lp946
I5
a(lp947
I1
aI3
aaa(lp948
I6
a(lp949
I1
aI3
aaa(lp950
I7
a(lp951
I1
aI3
aaa(lp952
I0
a(lp953
I1
aI2
aaa(lp954
I1
a(lp955
I1
aI2
aaa(lp956
I2
a(lp957
I1
aI2
aaa(lp958
I3
a(lp959
I1
aI2
aaa(lp960
I4
a(lp961
I1
aI3
aaa(lp962
I5
a(lp963
I1
aI3
aaa(lp964
I6
a(lp965
I1
aI3
aaa(lp966
I7
a(lp967
I1
aI3
aaa(lp968
I0
a(lp969
I1
aI2
aaa(lp970
I1
a(lp971
I1
aI2
aaa(lp972
I2
a(lp973
I1
aI2
aaa(lp974
I3
a(lp975
I1
aI2
aaa(lp976
I4
a(lp977
I1
aI3
aaa(lp978
I5
a(lp979
I1
aI3
aaa(lp980
I6
a(lp981
I1
aI3
aaa(lp982
I7
a(lp983
I1
aI3
aaa(lp984
I0
a(lp985
I1
aI2
aaa(lp986
I1
a(lp987
I1
aI2
aaa(lp988
I2
a(lp989
I1
aI2
aaa(lp990
I3
a(lp991
I1
aI2
aaa(lp992
I4
a(lp993
I1
aI3
aaa(lp994
I5
a(lp995
I1
aI3
aaa(lp996
I6
a(lp997
I1
aI3
aaa(lp998
I7
a(lp999
I1
aI3
aaa(lp1000
I0
a(lp1001
I1
aI2
aaa(lp1002
I1
a(lp1003
I1
aI2
aaa(lp1004
I2
a(lp1005
I1
aI2
aaa(lp1006
I3
a(lp1007
I1
aI2
aaa(lp1008
I4
a(lp1009
I1
aI3
aaa(lp1010
I5
a(lp1011
I1
aI3
aaa(lp1012
I6
a(lp1013
I1
aI3
aaa(lp1014
I7
a(lp1015
I1
aI3
aaaa(lp1016
(lp1017
I0
a(lp1018
I1
aI2
aaa(lp1019
I1
a(lp1020
I1
aI2
aaa(lp1021
I2
a(lp1022
I1
aI2
aaa(lp1023
I3
a(lp1024
I1
aI2
aaa(lp1025
I4
a(lp1026
I1
aI3
aaa(lp1027
I5
a(lp1028
I1
aI3
aaa(lp1029
I6
a(lp1030
I1
aI3
aaa(lp1031
I7
a(lp1032
I1
aI3
aaa(lp1033
I0
a(lp1034
I1
aI2
aaa(lp1035
I1
a(lp1036
I1
aI2
aaa(lp1037
I2
a(lp1038
I1
aI2
aaa(lp1039
I3
a(lp1040
I1
aI2
aaa(lp1041
I4
a(lp1042
I1
aI3
aaa(lp1043
I5
a(lp1044
I1
aI3
aaa(lp1045
I6
a(lp1046
I1
aI3
aaa(lp1047
I7
a(lp1048
I1
aI3
aaa(lp1049
I0
a(lp1050
I1
aI2
aaa(lp1051
I1
a(lp1052
I1
aI2
aaa(lp1053
I2
a(lp1054
I1
aI2
aaa(lp1055
I3
a(lp1056
I1
aI2
aaa(lp1057
I4
a(lp1058
I1
aI3
aaa(lp1059
I5
a(lp1060
I1
aI3
aaa(lp1061
I6
a(lp1062
I1
aI3
aaa(lp1063
I7
a(lp1064
I1
aI3
aaa(lp1065
I0
a(lp1066
I1
aI2
aaa(lp1067
I1
a(lp1068
I2
aI1
aaa(lp1069
I2
a(lp1070
I1
aI2
aaa(lp1071
I3
a(lp1072
I1
aI2
aaa(lp1073
I4
a(lp1074
I1
aI3
aaa(lp1075
I5
a(lp1076
I1
aI3
aaa(lp1077
I6
a(lp1078
I1
aI3
aaa(lp1079
I7
a(lp1080
I1
aI3
aaa(lp1081
I0
a(lp1082
I1
aI2
aaa(lp1083
I1
a(lp1084
I1
aI2
aaa(lp1085
I2
a(lp1086
I1
aI2
aaa(lp1087
I3
a(lp1088
I1
aI2
aaa(lp1089
I4
a(lp1090
I1
aI3
aaa(lp1091
I5
a(lp1092
I1
aI3
aaa(lp1093
I6
a(lp1094
I1
aI3
aaa(lp1095
I7
a(lp1096
I1
aI3
aaa(lp1097
I0
a(lp1098
I1
aI2
aaa(lp1099
I1
a(lp1100
I1
aI2
aaa(lp1101
I2
a(lp1102
I1
aI2
aaa(lp1103
I3
a(lp1104
I1
aI2
aaa(lp1105
I4
a(lp1106
I1
aI3
aaa(lp1107
I5
a(lp1108
I1
aI3
aaa(lp1109
I6
a(lp1110
I1
aI3
aaa(lp1111
I7
a(lp1112
I1
aI3
aaa(lp1113
I0
a(lp1114
I1
aI2
aaa(lp1115
I1
a(lp1116
I3
aI1
aI2
aaa(lp1117
I2
a(lp1118
I1
aI2
aaa(lp1119
I3
a(lp1120
I1
aI2
aaa(lp1121
I4
a(lp1122
I1
aI3
aaa(lp1123
I5
a(lp1124
I1
aI3
aaa(lp1125
I6
a(lp1126
I1
aI3
aaa(lp1127
I7
a(lp1128
I1
aI3
aaa(lp1129
I0
a(lp1130
I1
aI2
aaa(lp1131
I1
a(lp1132
I1
aI2
aaa(lp1133
I2
a(lp1134
I1
aI2
aaa(lp1135
I3
a(lp1136
I1
aI2
aaa(lp1137
I4
a(lp1138
I1
aI3
aaa(lp1139
I5
a(lp1140
I1
aI3
aaa(lp1141
I6
a(lp1142
I1
aI3
aaa(lp1143
I7
a(lp1144
I1
aI3
aaa(lp1145
I0
a(lp1146
I1
aI2
aaa(lp1147
I1
a(lp1148
I1
aI2
aaa(lp1149
I2
a(lp1150
I1
aI2
aaa(lp1151
I3
a(lp1152
I1
aI2
aaa(lp1153
I4
a(lp1154
I1
aI3
aaa(lp1155
I5
a(lp1156
I1
aI3
aaa(lp1157
I6
a(lp1158
I1
aI3
aaa(lp1159
I7
a(lp1160
I1
aI3
aaaa(lp1161
(lp1162
I0
a(lp1163
I1
aI2
aaa(lp1164
I1
a(lp1165
I1
aI2
aaa(lp1166
I2
a(lp1167
I1
aI2
aaa(lp1168
I3
a(lp1169
I1
aI2
aaa(lp1170
I4
a(lp1171
I1
aI3
aaa(lp1172
I5
a(lp1173
I1
aI3
aaa(lp1174
I6
a(lp1175
I1
aI3
aaa(lp1176
I7
a(lp1177
I1
aI3
aaa(lp1178
I0
a(lp1179
I1
aI2
aaa(lp1180
I1
a(lp1181
I1
aI2
aaa(lp1182
I2
a(lp1183
I1
aI2
aaa(lp1184
I3
a(lp1185
I1
aI2
aaa(lp1186
I4
a(lp1187
I1
aI3
aaa(lp1188
I5
a(lp1189
I1
aI3
aaa(lp1190
I6
a(lp1191
I1
aI3
aaa(lp1192
I7
a(lp1193
I1
aI3
aaa(lp1194
I0
a(lp1195
I1
aI2
aaa(lp1196
I1
a(lp1197
I1
aI2
aaa(lp1198
I2
a(lp1199
I1
aI2
aaa(lp1200
I3
a(lp1201
I1
aI2
aaa(lp1202
I4
a(lp1203
I1
aI3
aaa(lp1204
I5
a(lp1205
I1
aI3
aaa(lp1206
I6
a(lp1207
I1
aI3
aaa(lp1208
I7
a(lp1209
I1
aI3
aaa(lp1210
I0
a(lp1211
I1
aI2
aaa(lp1212
I1
a(lp1213
I1
aI2
aaa(lp1214
I2
a(lp1215
I1
aI2
aaa(lp1216
I3
a(lp1217
I1
aI2
aaa(lp1218
I4
a(lp1219
I1
aI3
aaa(lp1220
I5
a(lp1221
I1
aI3
aaa(lp1222
I6
a(lp1223
I1
aI3
aaa(lp1224
I7
a(lp1225
I1
aI3
aaa(lp1226
I0
a(lp1227
I1
aI2
aaa(lp1228
I1
a(lp1229
I1
aI2
aaa(lp1230
I2
a(lp1231
I1
aI2
aaa(lp1232
I3
a(lp1233
I1
aI2
aaa(lp1234
I4
a(lp1235
I1
aI3
aaa(lp1236
I5
a(lp1237
I1
aI3
aaa(lp1238
I6
a(lp1239
I1
aI3
aaa(lp1240
I7
a(lp1241
I1
aI3
aaa(lp1242
I0
a(lp1243
I1
aI2
aaa(lp1244
I1
a(lp1245
I1
aI2
aaa(lp1246
I2
a(lp1247
I1
aI2
aaa(lp1248
I3
a(lp1249
I1
aI2
aaa(lp1250
I4
a(lp1251
I1
aI3
aaa(lp1252
I5
a(lp1253
I1
aI3
aaa(lp1254
I6
a(lp1255
I1
aI3
aaa(lp1256
I7
a(lp1257
I1
aI3
aaa(lp1258
I0
a(lp1259
I1
aI2
aaa(lp1260
I1
a(lp1261
I1
aI2
aaa(lp1262
I2
a(lp1263
I1
aI2
aaa(lp1264
I3
a(lp1265
I1
aI2
aaa(lp1266
I4
a(lp1267
I1
aI3
aaa(lp1268
I5
a(lp1269
I1
aI3
aaa(lp1270
I6
a(lp1271
I1
aI3
aaa(lp1272
I7
a(lp1273
I1
aI3
aaa(lp1274
I0
a(lp1275
I1
aI2
aaa(lp1276
I1
a(lp1277
I1
aI2
aaa(lp1278
I2
a(lp1279
I1
aI2
aaa(lp1280
I3
a(lp1281
I1
aI2
aaa(lp1282
I4
a(lp1283
I1
aI3
aaa(lp1284
I5
a(lp1285
I1
aI3
aaa(lp1286
I6
a(lp1287
I1
aI3
aaa(lp1288
I7
a(lp1289
I1
aI3
aaa(lp1290
I0
a(lp1291
I1
aI2
aaa(lp1292
I1
a(lp1293
I1
aI2
aaa(lp1294
I2
a(lp1295
I1
aI2
aaa(lp1296
I3
a(lp1297
I1
aI2
aaa(lp1298
I4
a(lp1299
I1
aI3
aaa(lp1300
I5
a(lp1301
I1
aI3
aaa(lp1302
I6
a(lp1303
I1
aI3
aaa(lp1304
I7
a(lp1305
I1
aI3
aaaa(lp1306
(lp1307
I0
a(lp1308
I1
aI2
aaa(lp1309
I1
a(lp1310
I1
aI2
aaa(lp1311
I2
a(lp1312
I1
aI2
aaa(lp1313
I3
a(lp1314
I1
aI2
aaa(lp1315
I4
a(lp1316
I1
aI3
aaa(lp1317
I5
a(lp1318
I1
aI3
aaa(lp1319
I6
a(lp1320
I1
aI3
aaa(lp1321
I7
a(lp1322
I1
aI3
aaa(lp1323
I0
a(lp1324
I1
aI2
aaa(lp1325
I1
a(lp1326
I1
aI2
aaa(lp1327
I2
a(lp1328
I1
aI2
aaa(lp1329
I3
a(lp1330
I1
aI2
aaa(lp1331
I4
a(lp1332
I1
aI3
aaa(lp1333
I5
a(lp1334
I1
aI3
aaa(lp1335
I6
a(lp1336
I1
aI3
aaa(lp1337
I7
a(lp1338
I1
aI3
aaa(lp1339
I0
a(lp1340
I1
aI2
aaa(lp1341
I1
a(lp1342
I1
aI2
aaa(lp1343
I2
a(lp1344
I1
aI2
aaa(lp1345
I3
a(lp1346
I1
aI2
aaa(lp1347
I4
a(lp1348
I1
aI3
aaa(lp1349
I5
a(lp1350
I1
aI3
aaa(lp1351
I6
a(lp1352
I1
aI3
aaa(lp1353
I7
a(lp1354
I1
aI3
aaa(lp1355
I0
a(lp1356
I1
aI2
aaa(lp1357
I1
a(lp1358
I1
aI2
aaa(lp1359
I2
a(lp1360
I1
aI2
aaa(lp1361
I3
a(lp1362
I1
aI2
aaa(lp1363
I4
a(lp1364
I1
aI3
aaa(lp1365
I5
a(lp1366
I1
aI3
aaa(lp1367
I6
a(lp1368
I1
aI3
aaa(lp1369
I7
a(lp1370
I1
aI3
aaa(lp1371
I0
a(lp1372
I1
aI2
aaa(lp1373
I1
a(lp1374
I1
aI2
aaa(lp1375
I2
a(lp1376
I1
aI2
aaa(lp1377
I3
a(lp1378
I1
aI2
aaa(lp1379
I4
a(lp1380
I1
aI3
aaa(lp1381
I5
a(lp1382
I1
aI3
aaa(lp1383
I6
a(lp1384
I1
aI3
aaa(lp1385
I7
a(lp1386
I1
aI3
aaa(lp1387
I0
a(lp1388
I1
aI2
aaa(lp1389
I1
a(lp1390
I1
aI2
aaa(lp1391
I2
a(lp1392
I1
aI2
aaa(lp1393
I3
a(lp1394
I1
aI2
aaa(lp1395
I4
a(lp1396
I1
aI3
aaa(lp1397
I5
a(lp1398
I1
aI3
aaa(lp1399
I6
a(lp1400
I1
aI3
aaa(lp1401
I7
a(lp1402
I1
aI3
aaa(lp1403
I0
a(lp1404
I1
aI2
aaa(lp1405
I1
a(lp1406
I1
aI2
aaa(lp1407
I2
a(lp1408
I1
aI2
aaa(lp1409
I3
a(lp1410
I1
aI2
aaa(lp1411
I4
a(lp1412
I1
aI3
aaa(lp1413
I5
a(lp1414
I1
aI3
aaa(lp1415
I6
a(lp1416
I1
aI3
aaa(lp1417
I7
a(lp1418
I1
aI3
aaa(lp1419
I0
a(lp1420
I1
aI2
aaa(lp1421
I1
a(lp1422
I1
aI2
aaa(lp1423
I2
a(lp1424
I1
aI2
aaa(lp1425
I3
a(lp1426
I1
aI2
aaa(lp1427
I4
a(lp1428
I1
aI3
aaa(lp1429
I5
a(lp1430
I1
aI3
aaa(lp1431
I6
a(lp1432
I1
aI3
aaa(lp1433
I7
a(lp1434
I2
aI1
aI3
aaa(lp1435
I0
a(lp1436
I1
aI2
aaa(lp1437
I1
a(lp1438
I1
aI2
aaa(lp1439
I2
a(lp1440
I1
aI2
aaa(lp1441
I3
a(lp1442
I1
aI2
aaa(lp1443
I4
a(lp1444
I1
aI3
aaa(lp1445
I5
a(lp1446
I1
aI3
aaa(lp1447
I6
a(lp1448
I1
aI3
aaa(lp1449
I7
a(lp1450
I1
aI3
aaaa(lp1451
(lp1452
I0
a(lp1453
I1
aI2
aaa(lp1454
I1
a(lp1455
I1
aI2
aaa(lp1456
I2
a(lp1457
I1
aI2
aaa(lp1458
I3
a(lp1459
I1
aI2
aaa(lp1460
I4
a(lp1461
I1
aI3
aaa(lp1462
I5
a(lp1463
I1
aI3
aaa(lp1464
I6
a(lp1465
I1
aI3
aaa(lp1466
I7
a(lp1467
I1
aI3
aaa(lp1468
I0
a(lp1469
I1
aI2
aaa(lp1470
I1
a(lp1471
I1
aI2
aaa(lp1472
I2
a(lp1473
I1
aI2
aaa(lp1474
I3
a(lp1475
I1
aI2
aaa(lp1476
I4
a(lp1477
I1
aI3
aaa(lp1478
I5
a(lp1479
I1
aI3
aaa(lp1480
I6
a(lp1481
I1
aI3
aaa(lp1482
I7
a(lp1483
I1
aI3
aaa(lp1484
I0
a(lp1485
I1
aI2
aaa(lp1486
I1
a(lp1487
I1
aI2
aaa(lp1488
I2
a(lp1489
I1
aI2
aaa(lp1490
I3
a(lp1491
I3
aI1
aI2
aaa(lp1492
I4
a(lp1493
I1
aI3
aaa(lp1494
I5
a(lp1495
I1
aI3
aaa(lp1496
I6
a(lp1497
I1
aI3
aaa(lp1498
I7
a(lp1499
I1
aI3
aaa(lp1500
I0
a(lp1501
I1
aI2
aaa(lp1502
I1
a(lp1503
I1
aI2
aaa(lp1504
I2
a(lp1505
I1
aI2
aaa(lp1506
I3
a(lp1507
I1
aI2
aaa(lp1508
I4
a(lp1509
I1
aI3
aaa(lp1510
I5
a(lp1511
I1
aI3
aaa(lp1512
I6
a(lp1513
I1
aI3
aaa(lp1514
I7
a(lp1515
I1
aI3
aaa(lp1516
I0
a(lp1517
I1
aI2
aaa(lp1518
I1
a(lp1519
I1
aI2
aaa(lp1520
I2
a(lp1521
I1
aI2
aaa(lp1522
I3
a(lp1523
I1
aI2
aaa(lp1524
I4
a(lp1525
I1
aI3
aaa(lp1526
I5
a(lp1527
I1
aI3
aaa(lp1528
I6
a(lp1529
I1
aI3
aaa(lp1530
I7
a(lp1531
I1
aI3
aaa(lp1532
I0
a(lp1533
I1
aI2
aaa(lp1534
I1
a(lp1535
I1
aI2
aaa(lp1536
I2
a(lp1537
I1
aI2
aaa(lp1538
I3
a(lp1539
I1
aI2
aaa(lp1540
I4
a(lp1541
I1
aI3
aaa(lp1542
I5
a(lp1543
I1
aI3
aaa(lp1544
I6
a(lp1545
I1
aI3
aaa(lp1546
I7
a(lp1547
I1
aI3
aaa(lp1548
I0
a(lp1549
I1
aI2
aaa(lp1550
I1
a(lp1551
I1
aI2
aaa(lp1552
I2
a(lp1553
I1
aI2
aaa(lp1554
I3
a(lp1555
I1
aI2
aaa(lp1556
I4
a(lp1557
I1
aI3
aaa(lp1558
I5
a(lp1559
I1
aI3
aaa(lp1560
I6
a(lp1561
I1
aI3
aaa(lp1562
I7
a(lp1563
I1
aI3
aaa(lp1564
I0
a(lp1565
I1
aI2
aaa(lp1566
I1
a(lp1567
I1
aI2
aaa(lp1568
I2
a(lp1569
I1
aI2
aaa(lp1570
I3
a(lp1571
I1
aI2
aaa(lp1572
I4
a(lp1573
I1
aI3
aaa(lp1574
I5
a(lp1575
I1
aI3
aaa(lp1576
I6
a(lp1577
I1
aI3
aaa(lp1578
I7
a(lp1579
I1
aI3
aaa(lp1580
I0
a(lp1581
I1
aI2
aaa(lp1582
I1
a(lp1583
I1
aI2
aaa(lp1584
I2
a(lp1585
I1
aI2
aaa(lp1586
I3
a(lp1587
I1
aI2
aaa(lp1588
I4
a(lp1589
I3
aI1
aaa(lp1590
I5
a(lp1591
I1
aI3
aaa(lp1592
I6
a(lp1593
I1
aI3
aaa(lp1594
I7
a(lp1595
I1
aI3
aaaa(lp1596
(lp1597
I0
a(lp1598
I1
aI2
aaa(lp1599
I1
a(lp1600
I1
aI2
aaa(lp1601
I2
a(lp1602
I1
aI2
aaa(lp1603
I3
a(lp1604
I1
aI2
aaa(lp1605
I4
a(lp1606
I1
aI3
aaa(lp1607
I5
a(lp1608
I1
aI3
aaa(lp1609
I6
a(lp1610
I1
aI3
aaa(lp1611
I7
a(lp1612
I1
aI3
aaa(lp1613
I0
a(lp1614
I1
aI2
aaa(lp1615
I1
a(lp1616
I1
aI2
aaa(lp1617
I2
a(lp1618
I1
aI2
aaa(lp1619
I3
a(lp1620
I1
aI2
aaa(lp1621
I4
a(lp1622
I1
aI3
aaa(lp1623
I5
a(lp1624
I1
aI3
aaa(lp1625
I6
a(lp1626
I1
aI3
aaa(lp1627
I7
a(lp1628
I1
aI3
aaa(lp1629
I0
a(lp1630
I1
aI2
aaa(lp1631
I1
a(lp1632
I1
aI2
aaa(lp1633
I2
a(lp1634
I1
aI2
aaa(lp1635
I3
a(lp1636
I1
aI2
aaa(lp1637
I4
a(lp1638
I1
aI3
aaa(lp1639
I5
a(lp1640
I1
aI3
aaa(lp1641
I6
a(lp1642
I1
aI3
aaa(lp1643
I7
a(lp1644
I1
aI3
aaa(lp1645
I0
a(lp1646
I1
aI2
aaa(lp1647
I1
a(lp1648
I1
aI2
aaa(lp1649
I2
a(lp1650
I1
aI2
aaa(lp1651
I3
a(lp1652
I1
aI2
aaa(lp1653
I4
a(lp1654
I1
aI3
aaa(lp1655
I5
a(lp1656
I1
aI3
aaa(lp1657
I6
a(lp1658
I1
aI3
aaa(lp1659
I7
a(lp1660
I1
aI3
aaa(lp1661
I0
a(lp1662
I1
aI2
aaa(lp1663
I1
a(lp1664
I1
aI2
aaa(lp1665
I2
a(lp1666
I1
aI2
aaa(lp1667
I3
a(lp1668
I1
aI2
aaa(lp1669
I4
a(lp1670
I1
aI3
aaa(lp1671
I5
a(lp1672
I1
aI3
aaa(lp1673
I6
a(lp1674
I1
aI3
aaa(lp1675
I7
a(lp1676
I1
aI3
aaa(lp1677
I0
a(lp1678
I1
aI2
aaa(lp1679
I1
a(lp1680
I1
aI2
aaa(lp1681
I2
a(lp1682
I1
aI2
aaa(lp1683
I3
a(lp1684
I1
aI2
aaa(lp1685
I4
a(lp1686
I1
aI3
aaa(lp1687
I5
a(lp1688
I1
aI3
aaa(lp1689
I6
a(lp1690
I1
aI3
aaa(lp1691
I7
a(lp1692
I1
aI3
aaa(lp1693
I0
a(lp1694
I2
aI1
aaa(lp1695
I1
a(lp1696
I1
aI2
aaa(lp1697
I2
a(lp1698
I1
aI2
aaa(lp1699
I3
a(lp1700
I1
aI2
aaa(lp1701
I4
a(lp1702
I1
aI3
aaa(lp1703
I5
a(lp1704
I1
aI3
aaa(lp1705
I6
a(lp1706
I1
aI3
aaa(lp1707
I7
a(lp1708
I1
aI3
aaa(lp1709
I0
a(lp1710
I1
aI2
aaa(lp1711
I1
a(lp1712
I1
aI2
aaa(lp1713
I2
a(lp1714
I1
aI2
aaa(lp1715
I3
a(lp1716
I1
aI2
aaa(lp1717
I4
a(lp1718
I1
aI3
aaa(lp1719
I5
a(lp1720
I1
aI3
aaa(lp1721
I6
a(lp1722
I1
aI3
aaa(lp1723
I7
a(lp1724
I1
aI3
aaa(lp1725
I0
a(lp1726
I1
aI2
aaa(lp1727
I1
a(lp1728
I1
aI2
aaa(lp1729
I2
a(lp1730
I1
aI2
aaa(lp1731
I3
a(lp1732
I2
aI1
aaa(lp1733
I4
a(lp1734
I1
aI3
aaa(lp1735
I5
a(lp1736
I1
aI3
aaa(lp1737
I6
a(lp1738
I1
aI3
aaa(lp1739
I7
a(lp1740
I1
aI3
aaaa(lp1741
(lp1742
I0
a(lp1743
I1
aI2
aaa(lp1744
I1
a(lp1745
I1
aI2
aaa(lp1746
I2
a(lp1747
I1
aI2
aaa(lp1748
I3
a(lp1749
I1
aI2
aaa(lp1750
I4
a(lp1751
I1
aI3
aaa(lp1752
I5
a(lp1753
I1
aI3
aaa(lp1754
I6
a(lp1755
I1
aI3
aaa(lp1756
I7
a(lp1757
I1
aI3
aaa(lp1758
I0
a(lp1759
I1
aI2
aaa(lp1760
I1
a(lp1761
I1
aI2
aaa(lp1762
I2
a(lp1763
I1
aI2
aaa(lp1764
I3
a(lp1765
I1
aI2
aaa(lp1766
I4
a(lp1767
I1
aI3
aaa(lp1768
I5
a(lp1769
I1
aI3
aaa(lp1770
I6
a(lp1771
I1
aI3
aaa(lp1772
I7
a(lp1773
I1
aI3
aaa(lp1774
I0
a(lp1775
I1
aI2
aaa(lp1776
I1
a(lp1777
I1
aI2
aaa(lp1778
I2
a(lp1779
I1
aI2
aaa(lp1780
I3
a(lp1781
I1
aI2
aaa(lp1782
I4
a(lp1783
I1
aI3
aaa(lp1784
I5
a(lp1785
I1
aI3
aaa(lp1786
I6
a(lp1787
I1
aI3
aaa(lp1788
I7
a(lp1789
I2
aI1
aI3
aaa(lp1790
I0
a(lp1791
I1
aI2
aaa(lp1792
I1
a(lp1793
I1
aI2
aaa(lp1794
I2
a(lp1795
I1
aI2
aaa(lp1796
I3
a(lp1797
I1
aI2
aaa(lp1798
I4
a(lp1799
I1
aI3
aaa(lp1800
I5
a(lp1801
I1
aI3
aaa(lp1802
I6
a(lp1803
I1
aI3
aaa(lp1804
I7
a(lp1805
I1
aI3
aaa(lp1806
I0
a(lp1807
I1
aI2
aaa(lp1808
I1
a(lp1809
I1
aI2
aaa(lp1810
I2
a(lp1811
I1
aI2
aaa(lp1812
I3
a(lp1813
I1
aI2
aaa(lp1814
I4
a(lp1815
I1
aI3
aaa(lp1816
I5
a(lp1817
I1
aI3
aaa(lp1818
I6
a(lp1819
I1
aI3
aaa(lp1820
I7
a(lp1821
I1
aI3
aaa(lp1822
I0
a(lp1823
I1
aI2
aaa(lp1824
I1
a(lp1825
I1
aI2
aaa(lp1826
I2
a(lp1827
I1
aI2
aaa(lp1828
I3
a(lp1829
I1
aI2
aaa(lp1830
I4
a(lp1831
I1
aI3
aaa(lp1832
I5
a(lp1833
I1
aI3
aaa(lp1834
I6
a(lp1835
I1
aI3
aaa(lp1836
I7
a(lp1837
I1
aI3
aaa(lp1838
I0
a(lp1839
I1
aI2
aaa(lp1840
I1
a(lp1841
I1
aI2
aaa(lp1842
I2
a(lp1843
I1
aI2
aaa(lp1844
I3
a(lp1845
I1
aI2
aaa(lp1846
I4
a(lp1847
I1
aI3
aaa(lp1848
I5
a(lp1849
I1
aI3
aaa(lp1850
I6
a(lp1851
I1
aI3
aaa(lp1852
I7
a(lp1853
I1
aI3
aaa(lp1854
I0
a(lp1855
I1
aI2
aaa(lp1856
I1
a(lp1857
I1
aI2
aaa(lp1858
I2
a(lp1859
I1
aI2
aaa(lp1860
I3
a(lp1861
I1
aI2
aaa(lp1862
I4
a(lp1863
I1
aI3
aaa(lp1864
I5
a(lp1865
I1
aI3
aaa(lp1866
I6
a(lp1867
I1
aI3
aaa(lp1868
I7
a(lp1869
I1
aI3
aaa(lp1870
I0
a(lp1871
I1
aI2
aaa(lp1872
I1
a(lp1873
I1
aI2
aaa(lp1874
I2
a(lp1875
I1
aI2
aaa(lp1876
I3
a(lp1877
I1
aI2
aaa(lp1878
I4
a(lp1879
I1
aI3
aaa(lp1880
I5
a(lp1881
I1
aI3
aaa(lp1882
I6
a(lp1883
I1
aI3
aaa(lp1884
I7
a(lp1885
I1
aI3
aaaa(lp1886
(lp1887
I0
a(lp1888
I1
aI2
aaa(lp1889
I1
a(lp1890
I1
aI2
aaa(lp1891
I2
a(lp1892
I1
aI2
aaa(lp1893
I3
a(lp1894
I1
aI2
aaa(lp1895
I4
a(lp1896
I1
aI3
aaa(lp1897
I5
a(lp1898
I1
aI3
aaa(lp1899
I6
a(lp1900
I1
aI3
aaa(lp1901
I7
a(lp1902
I1
aI3
aaa(lp1903
I0
a(lp1904
I1
aI2
aaa(lp1905
I1
a(lp1906
I1
aI2
aaa(lp1907
I2
a(lp1908
I1
aI2
aaa(lp1909
I3
a(lp1910
I1
aI2
aaa(lp1911
I4
a(lp1912
I1
aI3
aaa(lp1913
I5
a(lp1914
I1
aI3
aaa(lp1915
I6
a(lp1916
I1
aI3
aaa(lp1917
I7
a(lp1918
I1
aI3
aaa(lp1919
I0
a(lp1920
I1
aI2
aaa(lp1921
I1
a(lp1922
I1
aI2
aaa(lp1923
I2
a(lp1924
I1
aI2
aaa(lp1925
I3
a(lp1926
I1
aI2
aaa(lp1927
I4
a(lp1928
I1
aI3
aaa(lp1929
I5
a(lp1930
I1
aI3
aaa(lp1931
I6
a(lp1932
I1
aI3
aaa(lp1933
I7
a(lp1934
I1
aI3
aaa(lp1935
I0
a(lp1936
I1
aI2
aaa(lp1937
I1
a(lp1938
I1
aI2
aaa(lp1939
I2
a(lp1940
I1
aI2
aaa(lp1941
I3
a(lp1942
I1
aI2
aaa(lp1943
I4
a(lp1944
I1
aI3
aaa(lp1945
I5
a(lp1946
I1
aI3
aaa(lp1947
I6
a(lp1948
I1
aI3
aaa(lp1949
I7
a(lp1950
I1
aI3
aaa(lp1951
I0
a(lp1952
I1
aI2
aaa(lp1953
I1
a(lp1954
I1
aI2
aaa(lp1955
I2
a(lp1956
I1
aI2
aaa(lp1957
I3
a(lp1958
I1
aI2
aaa(lp1959
I4
a(lp1960
I1
aI3
aaa(lp1961
I5
a(lp1962
I1
aI3
aaa(lp1963
I6
a(lp1964
I1
aI3
aaa(lp1965
I7
a(lp1966
I1
aI3
aaa(lp1967
I0
a(lp1968
I1
aI2
aaa(lp1969
I1
a(lp1970
I1
aI2
aaa(lp1971
I2
a(lp1972
I1
aI2
aaa(lp1973
I3
a(lp1974
I1
aI2
aaa(lp1975
I4
a(lp1976
I1
aI3
aaa(lp1977
I5
a(lp1978
I1
aI3
aaa(lp1979
I6
a(lp1980
I1
aI3
aaa(lp1981
I7
a(lp1982
I1
aI3
aaa(lp1983
I0
a(lp1984
I1
aI2
aaa(lp1985
I1
a(lp1986
I1
aI2
aaa(lp1987
I2
a(lp1988
I1
aI2
aaa(lp1989
I3
a(lp1990
I1
aI2
aaa(lp1991
I4
a(lp1992
I1
aI3
aaa(lp1993
I5
a(lp1994
I1
aI3
aaa(lp1995
I6
a(lp1996
I1
aI3
aaa(lp1997
I7
a(lp1998
I1
aI3
aaa(lp1999
I0
a(lp2000
I1
aI2
aaa(lp2001
I1
a(lp2002
I1
aI2
aaa(lp2003
I2
a(lp2004
I1
aI2
aaa(lp2005
I3
a(lp2006
I1
aI2
aaa(lp2007
I4
a(lp2008
I1
aI3
aaa(lp2009
I5
a(lp2010
I1
aI3
aaa(lp2011
I6
a(lp2012
I1
aI3
aaa(lp2013
I7
a(lp2014
I1
aI3
aaa(lp2015
I0
a(lp2016
I1
aI2
aaa(lp2017
I1
a(lp2018
I1
aI2
aaa(lp2019
I2
a(lp2020
I1
aI2
aaa(lp2021
I3
a(lp2022
I1
aI2
aaa(lp2023
I4
a(lp2024
I1
aI3
aaa(lp2025
I5
a(lp2026
I1
aI3
aaa(lp2027
I6
a(lp2028
I1
aI3
aaa(lp2029
I7
a(lp2030
I1
aI3
aaaa(lp2031
(lp2032
I0
a(lp2033
I1
aI2
aaa(lp2034
I1
a(lp2035
I1
aI2
aaa(lp2036
I2
a(lp2037
I1
aI2
aaa(lp2038
I3
a(lp2039
I1
aI2
aaa(lp2040
I4
a(lp2041
I1
aI3
aaa(lp2042
I5
a(lp2043
I1
aI3
aaa(lp2044
I6
a(lp2045
I1
aI3
aaa(lp2046
I7
a(lp2047
I1
aI3
aaa(lp2048
I0
a(lp2049
I1
aI2
aaa(lp2050
I1
a(lp2051
I1
aI2
aaa(lp2052
I2
a(lp2053
I1
aI2
aaa(lp2054
I3
a(lp2055
I1
aI2
aaa(lp2056
I4
a(lp2057
I1
aI3
aaa(lp2058
I5
a(lp2059
I1
aI3
aaa(lp2060
I6
a(lp2061
I1
aI3
aaa(lp2062
I7
a(lp2063
I1
aI3
aaa(lp2064
I0
a(lp2065
I1
aI2
aaa(lp2066
I1
a(lp2067
I1
aI2
aaa(lp2068
I2
a(lp2069
I1
aI2
aaa(lp2070
I3
a(lp2071
I1
aI2
aaa(lp2072
I4
a(lp2073
I1
aI3
aaa(lp2074
I5
a(lp2075
I1
aI3
aaa(lp2076
I6
a(lp2077
I1
aI3
aaa(lp2078
I7
a(lp2079
I1
aI3
aaa(lp2080
I0
a(lp2081
I1
aI2
aaa(lp2082
I1
a(lp2083
I1
aI2
aaa(lp2084
I2
a(lp2085
I1
aI2
aaa(lp2086
I3
a(lp2087
I1
aI2
aaa(lp2088
I4
a(lp2089
I1
aI3
aaa(lp2090
I5
a(lp2091
I1
aI3
aaa(lp2092
I6
a(lp2093
I1
aI3
aaa(lp2094
I7
a(lp2095
I1
aI3
aaa(lp2096
I0
a(lp2097
I1
aI2
aaa(lp2098
I1
a(lp2099
I1
aI2
aaa(lp2100
I2
a(lp2101
I1
aI2
aaa(lp2102
I3
a(lp2103
I1
aI2
aaa(lp2104
I4
a(lp2105
I1
aI3
aaa(lp2106
I5
a(lp2107
I1
aI3
aaa(lp2108
I6
a(lp2109
I1
aI3
aaa(lp2110
I7
a(lp2111
I1
aI3
aaa(lp2112
I0
a(lp2113
I1
aI2
aaa(lp2114
I1
a(lp2115
I1
aI2
aaa(lp2116
I2
a(lp2117
I1
aI2
aaa(lp2118
I3
a(lp2119
I1
aI2
aaa(lp2120
I4
a(lp2121
I1
aI3
aaa(lp2122
I5
a(lp2123
I1
aI3
aaa(lp2124
I6
a(lp2125
I1
aI3
aaa(lp2126
I7
a(lp2127
I1
aI3
aaa(lp2128
I0
a(lp2129
I1
aI2
aaa(lp2130
I1
a(lp2131
I1
aI2
aaa(lp2132
I2
a(lp2133
I1
aI2
aaa(lp2134
I3
a(lp2135
I2
aI1
aaa(lp2136
I4
a(lp2137
I1
aI3
aaa(lp2138
I5
a(lp2139
I1
aI3
aaa(lp2140
I6
a(lp2141
I1
aI3
aaa(lp2142
I7
a(lp2143
I1
aI3
aaa(lp2144
I0
a(lp2145
I1
aI2
aaa(lp2146
I1
a(lp2147
I1
aI2
aaa(lp2148
I2
a(lp2149
I1
aI2
aaa(lp2150
I3
a(lp2151
I1
aI2
aaa(lp2152
I4
a(lp2153
I1
aI3
aaa(lp2154
I5
a(lp2155
I1
aI3
aaa(lp2156
I6
a(lp2157
I1
aI3
aaa(lp2158
I7
a(lp2159
I1
aI3
aaa(lp2160
I0
a(lp2161
I1
aI2
aaa(lp2162
I1
a(lp2163
I1
aI2
aaa(lp2164
I2
a(lp2165
I1
aI2
aaa(lp2166
I3
a(lp2167
I1
aI2
aaa(lp2168
I4
a(lp2169
I1
aI3
aaa(lp2170
I5
a(lp2171
I1
aI3
aaa(lp2172
I6
a(lp2173
I1
aI3
aaa(lp2174
I7
a(lp2175
I1
aI3
aaaa(lp2176
(lp2177
I0
a(lp2178
I1
aI2
aaa(lp2179
I1
a(lp2180
I1
aI2
aaa(lp2181
I2
a(lp2182
I1
aI2
aaa(lp2183
I3
a(lp2184
I1
aI2
aaa(lp2185
I4
a(lp2186
I1
aI3
aaa(lp2187
I5
a(lp2188
I1
aI3
aaa(lp2189
I6
a(lp2190
I1
aI3
aaa(lp2191
I7
a(lp2192
I1
aI3
aaa(lp2193
I0
a(lp2194
I1
aI2
aaa(lp2195
I1
a(lp2196
I1
aI2
aaa(lp2197
I2
a(lp2198
I1
aI2
aaa(lp2199
I3
a(lp2200
I1
aI2
aaa(lp2201
I4
a(lp2202
I1
aI3
aaa(lp2203
I5
a(lp2204
I1
aI3
aaa(lp2205
I6
a(lp2206
I1
aI3
aaa(lp2207
I7
a(lp2208
I1
aI3
aaa(lp2209
I0
a(lp2210
I1
aI2
aaa(lp2211
I1
a(lp2212
I1
aI2
aaa(lp2213
I2
a(lp2214
I1
aI2
aaa(lp2215
I3
a(lp2216
I1
aI2
aaa(lp2217
I4
a(lp2218
I1
aI3
aaa(lp2219
I5
a(lp2220
I1
aI3
aaa(lp2221
I6
a(lp2222
I1
aI3
aaa(lp2223
I7
a(lp2224
I1
aI3
aaa(lp2225
I0
a(lp2226
I1
aI2
aaa(lp2227
I1
a(lp2228
I1
aI2
aaa(lp2229
I2
a(lp2230
I1
aI2
aaa(lp2231
I3
a(lp2232
I1
aI2
aaa(lp2233
I4
a(lp2234
I1
aI3
aaa(lp2235
I5
a(lp2236
I1
aI3
aaa(lp2237
I6
a(lp2238
I1
aI3
aaa(lp2239
I7
a(lp2240
I1
aI3
aaa(lp2241
I0
a(lp2242
I1
aI2
aaa(lp2243
I1
a(lp2244
I1
aI2
aaa(lp2245
I2
a(lp2246
I1
aI2
aaa(lp2247
I3
a(lp2248
I1
aI2
aaa(lp2249
I4
a(lp2250
I1
aI3
aaa(lp2251
I5
a(lp2252
I1
aI3
aaa(lp2253
I6
a(lp2254
I1
aI3
aaa(lp2255
I7
a(lp2256
I1
aI3
aaa(lp2257
I0
a(lp2258
I1
aI2
aaa(lp2259
I1
a(lp2260
I1
aI2
aaa(lp2261
I2
a(lp2262
I1
aI2
aaa(lp2263
I3
a(lp2264
I1
aI2
aaa(lp2265
I4
a(lp2266
I1
aI3
aaa(lp2267
I5
a(lp2268
I1
aI3
aaa(lp2269
I6
a(lp2270
I1
aI3
aaa(lp2271
I7
a(lp2272
I1
aI3
aaa(lp2273
I0
a(lp2274
I1
aI2
aaa(lp2275
I1
a(lp2276
I1
aI2
aaa(lp2277
I2
a(lp2278
I1
aI2
aaa(lp2279
I3
a(lp2280
I1
aI2
aaa(lp2281
I4
a(lp2282
I1
aI3
aaa(lp2283
I5
a(lp2284
I1
aI3
aaa(lp2285
I6
a(lp2286
I1
aI3
aaa(lp2287
I7
a(lp2288
I1
aI3
aaa(lp2289
I0
a(lp2290
I1
aI2
aaa(lp2291
I1
a(lp2292
I1
aI2
aaa(lp2293
I2
a(lp2294
I1
aI2
aaa(lp2295
I3
a(lp2296
I1
aI2
aaa(lp2297
I4
a(lp2298
I1
aI3
aaa(lp2299
I5
a(lp2300
I1
aI3
aaa(lp2301
I6
a(lp2302
I1
aI3
aaa(lp2303
I7
a(lp2304
I1
aI3
aaa(lp2305
I0
a(lp2306
I1
aI2
aaa(lp2307
I1
a(lp2308
I1
aI2
aaa(lp2309
I2
a(lp2310
I1
aI2
aaa(lp2311
I3
a(lp2312
I1
aI2
aaa(lp2313
I4
a(lp2314
I1
aI3
aaa(lp2315
I5
a(lp2316
I1
aI3
aaa(lp2317
I6
a(lp2318
I1
aI3
aaa(lp2319
I7
a(lp2320
I1
aI3
aaaa(lp2321
(lp2322
I0
a(lp2323
I1
aI2
aaa(lp2324
I1
a(lp2325
I1
aI2
aaa(lp2326
I2
a(lp2327
I1
aI2
aaa(lp2328
I3
a(lp2329
I1
aI2
aaa(lp2330
I4
a(lp2331
I1
aI3
aaa(lp2332
I5
a(lp2333
I1
aI3
aaa(lp2334
I6
a(lp2335
I1
aI3
aaa(lp2336
I7
a(lp2337
I1
aI3
aaa(lp2338
I0
a(lp2339
I1
aI2
aaa(lp2340
I1
a(lp2341
I1
aI2
aaa(lp2342
I2
a(lp2343
I1
aI2
aaa(lp2344
I3
a(lp2345
I1
aI2
aaa(lp2346
I4
a(lp2347
I1
aI3
aaa(lp2348
I5
a(lp2349
I1
aI3
aaa(lp2350
I6
a(lp2351
I1
aI3
aaa(lp2352
I7
a(lp2353
I1
aI3
aaa(lp2354
I0
a(lp2355
I1
aI2
aaa(lp2356
I1
a(lp2357
I1
aI2
aaa(lp2358
I2
a(lp2359
I1
aI2
aaa(lp2360
I3
a(lp2361
I1
aI2
aaa(lp2362
I4
a(lp2363
I1
aI3
aaa(lp2364
I5
a(lp2365
I1
aI3
aaa(lp2366
I6
a(lp2367
I1
aI3
aaa(lp2368
I7
a(lp2369
I1
aI3
aaa(lp2370
I0
a(lp2371
I1
aI2
aaa(lp2372
I1
a(lp2373
I1
aI2
aaa(lp2374
I2
a(lp2375
I1
aI2
aaa(lp2376
I3
a(lp2377
I1
aI2
aaa(lp2378
I4
a(lp2379
I1
aI3
aaa(lp2380
I5
a(lp2381
I1
aI3
aaa(lp2382
I6
a(lp2383
I1
aI3
aaa(lp2384
I7
a(lp2385
I1
aI3
aaa(lp2386
I0
a(lp2387
I1
aI2
aaa(lp2388
I1
a(lp2389
I1
aI2
aaa(lp2390
I2
a(lp2391
I1
aI2
aaa(lp2392
I3
a(lp2393
I1
aI2
aaa(lp2394
I4
a(lp2395
I1
aI3
aaa(lp2396
I5
a(lp2397
I1
aI3
aaa(lp2398
I6
a(lp2399
I1
aI3
aaa(lp2400
I7
a(lp2401
I1
aI3
aaa(lp2402
I0
a(lp2403
I1
aI2
aaa(lp2404
I1
a(lp2405
I1
aI2
aaa(lp2406
I2
a(lp2407
I1
aI2
aaa(lp2408
I3
a(lp2409
I1
aI2
aaa(lp2410
I4
a(lp2411
I1
aI3
aaa(lp2412
I5
a(lp2413
I1
aI3
aaa(lp2414
I6
a(lp2415
I1
aI3
aaa(lp2416
I7
a(lp2417
I1
aI3
aaa(lp2418
I0
a(lp2419
I1
aI2
aaa(lp2420
I1
a(lp2421
I1
aI2
aaa(lp2422
I2
a(lp2423
I1
aI2
aaa(lp2424
I3
a(lp2425
I1
aI2
aaa(lp2426
I4
a(lp2427
I1
aI3
aaa(lp2428
I5
a(lp2429
I1
aI3
aaa(lp2430
I6
a(lp2431
I1
aI3
aaa(lp2432
I7
a(lp2433
I1
aI3
aaa(lp2434
I0
a(lp2435
I1
aI2
aaa(lp2436
I1
a(lp2437
I1
aI2
aaa(lp2438
I2
a(lp2439
I1
aI2
aaa(lp2440
I3
a(lp2441
I1
aI2
aaa(lp2442
I4
a(lp2443
I1
aI3
aaa(lp2444
I5
a(lp2445
I1
aI3
aaa(lp2446
I6
a(lp2447
I1
aI3
aaa(lp2448
I7
a(lp2449
I1
aI3
aaa(lp2450
I0
a(lp2451
I1
aI2
aaa(lp2452
I1
a(lp2453
I1
aI2
aaa(lp2454
I2
a(lp2455
I1
aI2
aaa(lp2456
I3
a(lp2457
I1
aI2
aaa(lp2458
I4
a(lp2459
I1
aI3
aaa(lp2460
I5
a(lp2461
I1
aI3
aaa(lp2462
I6
a(lp2463
I1
aI3
aaa(lp2464
I7
a(lp2465
I1
aI3
aaaa(lp2466
(lp2467
I0
a(lp2468
I1
aI2
aaa(lp2469
I1
a(lp2470
I1
aI2
aaa(lp2471
I2
a(lp2472
I1
aI2
aaa(lp2473
I3
a(lp2474
I1
aI2
aaa(lp2475
I4
a(lp2476
I1
aI3
aaa(lp2477
I5
a(lp2478
I1
aI3
aaa(lp2479
I6
a(lp2480
I1
aI3
aaa(lp2481
I7
a(lp2482
I1
aI3
aaa(lp2483
I0
a(lp2484
I1
aI2
aaa(lp2485
I1
a(lp2486
I1
aI2
aaa(lp2487
I2
a(lp2488
I1
aI2
aaa(lp2489
I3
a(lp2490
I1
aI2
aaa(lp2491
I4
a(lp2492
I1
aI3
aaa(lp2493
I5
a(lp2494
I1
aI3
aaa(lp2495
I6
a(lp2496
I1
aI3
aaa(lp2497
I7
a(lp2498
I1
aI3
aaa(lp2499
I0
a(lp2500
I1
aI2
aaa(lp2501
I1
a(lp2502
I1
aI2
aaa(lp2503
I2
a(lp2504
I1
aI2
aaa(lp2505
I3
a(lp2506
I1
aI2
aaa(lp2507
I4
a(lp2508
I1
aI3
aaa(lp2509
I5
a(lp2510
I1
aI3
aaa(lp2511
I6
a(lp2512
I1
aI3
aaa(lp2513
I7
a(lp2514
I1
aI3
aaa(lp2515
I0
a(lp2516
I1
aI2
aaa(lp2517
I1
a(lp2518
I1
aI2
aaa(lp2519
I2
a(lp2520
I1
aI2
aaa(lp2521
I3
a(lp2522
I1
aI2
aaa(lp2523
I4
a(lp2524
I1
aI3
aaa(lp2525
I5
a(lp2526
I1
aI3
aaa(lp2527
I6
a(lp2528
I1
aI3
aaa(lp2529
I7
a(lp2530
I1
aI3
aaa(lp2531
I0
a(lp2532
I1
aI2
aaa(lp2533
I1
a(lp2534
I1
aI2
aaa(lp2535
I2
a(lp2536
I1
aI2
aaa(lp2537
I3
a(lp2538
I1
aI2
aaa(lp2539
I4
a(lp2540
I1
aI3
aaa(lp2541
I5
a(lp2542
I1
aI3
aaa(lp2543
I6
a(lp2544
I1
aI3
aaa(lp2545
I7
a(lp2546
I1
aI3
aaa(lp2547
I0
a(lp2548
I1
aI2
aaa(lp2549
I1
a(lp2550
I1
aI2
aaa(lp2551
I2
a(lp2552
I1
aI2
aaa(lp2553
I3
a(lp2554
I1
aI2
aaa(lp2555
I4
a(lp2556
I1
aI3
aaa(lp2557
I5
a(lp2558
I1
aI3
aaa(lp2559
I6
a(lp2560
I1
aI3
aaa(lp2561
I7
a(lp2562
I1
aI3
aaa(lp2563
I0
a(lp2564
I1
aI2
aaa(lp2565
I1
a(lp2566
I1
aI2
aaa(lp2567
I2
a(lp2568
I1
aI2
aaa(lp2569
I3
a(lp2570
I1
aI2
aaa(lp2571
I4
a(lp2572
I1
aI3
aaa(lp2573
I5
a(lp2574
I1
aI3
aaa(lp2575
I6
a(lp2576
I1
aI3
aaa(lp2577
I7
a(lp2578
I1
aI3
aaa(lp2579
I0
a(lp2580
I1
aI2
aaa(lp2581
I1
a(lp2582
I1
aI2
aaa(lp2583
I2
a(lp2584
I1
aI2
aaa(lp2585
I3
a(lp2586
I1
aI2
aaa(lp2587
I4
a(lp2588
I1
aI3
aaa(lp2589
I5
a(lp2590
I1
aI3
aaa(lp2591
I6
a(lp2592
I1
aI3
aaa(lp2593
I7
a(lp2594
I1
aI3
aaa(lp2595
I0
a(lp2596
I1
aI2
aaa(lp2597
I1
a(lp2598
I1
aI2
aaa(lp2599
I2
a(lp2600
I1
aI2
aaa(lp2601
I3
a(lp2602
I1
aI2
aaa(lp2603
I4
a(lp2604
I1
aI3
aaa(lp2605
I5
a(lp2606
I1
aI3
aaa(lp2607
I6
a(lp2608
I1
aI3
aaa(lp2609
I7
a(lp2610
I1
aI3
aaaa(lp2611
(lp2612
I0
a(lp2613
I1
aI2
aaa(lp2614
I1
a(lp2615
I1
aI2
aaa(lp2616
I2
a(lp2617
I1
aI2
aaa(lp2618
I3
a(lp2619
I1
aI2
aaa(lp2620
I4
a(lp2621
I1
aI3
aaa(lp2622
I5
a(lp2623
I1
aI3
aaa(lp2624
I6
a(lp2625
I1
aI3
aaa(lp2626
I7
a(lp2627
I1
aI3
aaa(lp2628
I0
a(lp2629
I1
aI2
aaa(lp2630
I1
a(lp2631
I1
aI2
aaa(lp2632
I2
a(lp2633
I1
aI2
aaa(lp2634
I3
a(lp2635
I1
aI2
aaa(lp2636
I4
a(lp2637
I1
aI3
aaa(lp2638
I5
a(lp2639
I1
aI3
aaa(lp2640
I6
a(lp2641
I1
aI3
aaa(lp2642
I7
a(lp2643
I1
aI3
aaa(lp2644
I0
a(lp2645
I1
aI2
aaa(lp2646
I1
a(lp2647
I1
aI2
aaa(lp2648
I2
a(lp2649
I1
aI2
aaa(lp2650
I3
a(lp2651
I1
aI2
aaa(lp2652
I4
a(lp2653
I1
aI3
aaa(lp2654
I5
a(lp2655
I1
aI3
aaa(lp2656
I6
a(lp2657
I1
aI3
aaa(lp2658
I7
a(lp2659
I1
aI3
aaa(lp2660
I0
a(lp2661
I1
aI2
aaa(lp2662
I1
a(lp2663
I1
aI2
aaa(lp2664
I2
a(lp2665
I1
aI2
aaa(lp2666
I3
a(lp2667
I1
aI2
aaa(lp2668
I4
a(lp2669
I1
aI3
aaa(lp2670
I5
a(lp2671
I1
aI3
aaa(lp2672
I6
a(lp2673
I1
aI3
aaa(lp2674
I7
a(lp2675
I1
aI3
aaa(lp2676
I0
a(lp2677
I1
aI2
aaa(lp2678
I1
a(lp2679
I1
aI2
aaa(lp2680
I2
a(lp2681
I1
aI2
aaa(lp2682
I3
a(lp2683
I1
aI2
aaa(lp2684
I4
a(lp2685
I1
aI3
aaa(lp2686
I5
a(lp2687
I1
aI3
aaa(lp2688
I6
a(lp2689
I1
aI3
aaa(lp2690
I7
a(lp2691
I1
aI3
aaa(lp2692
I0
a(lp2693
I1
aI2
aaa(lp2694
I1
a(lp2695
I1
aI2
aaa(lp2696
I2
a(lp2697
I1
aI2
aaa(lp2698
I3
a(lp2699
I1
aI2
aaa(lp2700
I4
a(lp2701
I1
aI3
aaa(lp2702
I5
a(lp2703
I3
aI1
aaa(lp2704
I6
a(lp2705
I1
aI3
aaa(lp2706
I7
a(lp2707
I1
aI3
aaa(lp2708
I0
a(lp2709
I1
aI2
aaa(lp2710
I1
a(lp2711
I1
aI2
aaa(lp2712
I2
a(lp2713
I1
aI2
aaa(lp2714
I3
a(lp2715
I1
aI2
aaa(lp2716
I4
a(lp2717
I1
aI3
aaa(lp2718
I5
a(lp2719
I1
aI3
aaa(lp2720
I6
a(lp2721
I1
aI3
aaa(lp2722
I7
a(lp2723
I1
aI3
aaa(lp2724
I0
a(lp2725
I1
aI2
aaa(lp2726
I1
a(lp2727
I2
aI1
aaa(lp2728
I2
a(lp2729
I1
aI2
aaa(lp2730
I3
a(lp2731
I1
aI2
aaa(lp2732
I4
a(lp2733
I1
aI3
aaa(lp2734
I5
a(lp2735
I1
aI3
aaa(lp2736
I6
a(lp2737
I1
aI3
aaa(lp2738
I7
a(lp2739
I1
aI3
aaa(lp2740
I0
a(lp2741
I1
aI2
aaa(lp2742
I1
a(lp2743
I1
aI2
aaa(lp2744
I2
a(lp2745
I1
aI2
aaa(lp2746
I3
a(lp2747
I1
aI2
aaa(lp2748
I4
a(lp2749
I1
aI3
aaa(lp2750
I5
a(lp2751
I1
aI3
aaa(lp2752
I6
a(lp2753
I1
aI3
aaa(lp2754
I7
a(lp2755
I1
aI3
aaaa(lp2756
(lp2757
I0
a(lp2758
I1
aI2
aaa(lp2759
I1
a(lp2760
I1
aI2
aaa(lp2761
I2
a(lp2762
I1
aI2
aaa(lp2763
I3
a(lp2764
I1
aI2
aaa(lp2765
I4
a(lp2766
I1
aI3
aaa(lp2767
I5
a(lp2768
I1
aI3
aaa(lp2769
I6
a(lp2770
I1
aI3
aaa(lp2771
I7
a(lp2772
I1
aI3
aaa(lp2773
I0
a(lp2774
I1
aI2
aaa(lp2775
I1
a(lp2776
I1
aI2
aaa(lp2777
I2
a(lp2778
I1
aI2
aaa(lp2779
I3
a(lp2780
I1
aI2
aaa(lp2781
I4
a(lp2782
I1
aI3
aaa(lp2783
I5
a(lp2784
I1
aI3
aaa(lp2785
I6
a(lp2786
I1
aI3
aaa(lp2787
I7
a(lp2788
I1
aI3
aaa(lp2789
I0
a(lp2790
I1
aI2
aaa(lp2791
I1
a(lp2792
I1
aI2
aaa(lp2793
I2
a(lp2794
I1
aI2
aaa(lp2795
I3
a(lp2796
I1
aI2
aaa(lp2797
I4
a(lp2798
I1
aI3
aaa(lp2799
I5
a(lp2800
I1
aI3
aaa(lp2801
I6
a(lp2802
I1
aI3
aaa(lp2803
I7
a(lp2804
I1
aI3
aaa(lp2805
I0
a(lp2806
I1
aI2
aaa(lp2807
I1
a(lp2808
I1
aI2
aaa(lp2809
I2
a(lp2810
I1
aI2
aaa(lp2811
I3
a(lp2812
I1
aI2
aaa(lp2813
I4
a(lp2814
I1
aI3
aaa(lp2815
I5
a(lp2816
I1
aI3
aaa(lp2817
I6
a(lp2818
I1
aI3
aaa(lp2819
I7
a(lp2820
I1
aI3
aaa(lp2821
I0
a(lp2822
I1
aI2
aaa(lp2823
I1
a(lp2824
I1
aI2
aaa(lp2825
I2
a(lp2826
I1
aI2
aaa(lp2827
I3
a(lp2828
I1
aI2
aaa(lp2829
I4
a(lp2830
I1
aI3
aaa(lp2831
I5
a(lp2832
I1
aI3
aaa(lp2833
I6
a(lp2834
I1
aI3
aaa(lp2835
I7
a(lp2836
I1
aI3
aaa(lp2837
I0
a(lp2838
I1
aI2
aaa(lp2839
I1
a(lp2840
I1
aI2
aaa(lp2841
I2
a(lp2842
I1
aI2
aaa(lp2843
I3
a(lp2844
I3
aI1
aI2
aaa(lp2845
I4
a(lp2846
I1
aI3
aaa(lp2847
I5
a(lp2848
I1
aI3
aaa(lp2849
I6
a(lp2850
I1
aI3
aaa(lp2851
I7
a(lp2852
I1
aI3
aaa(lp2853
I0
a(lp2854
I1
aI2
aaa(lp2855
I1
a(lp2856
I1
aI2
aaa(lp2857
I2
a(lp2858
I1
aI2
aaa(lp2859
I3
a(lp2860
I1
aI2
aaa(lp2861
I4
a(lp2862
I1
aI3
aaa(lp2863
I5
a(lp2864
I1
aI3
aaa(lp2865
I6
a(lp2866
I1
aI3
aaa(lp2867
I7
a(lp2868
I1
aI3
aaa(lp2869
I0
a(lp2870
I1
aI2
aaa(lp2871
I1
a(lp2872
I1
aI2
aaa(lp2873
I2
a(lp2874
I1
aI2
aaa(lp2875
I3
a(lp2876
I1
aI2
aaa(lp2877
I4
a(lp2878
I1
aI3
aaa(lp2879
I5
a(lp2880
I1
aI3
aaa(lp2881
I6
a(lp2882
I1
aI3
aaa(lp2883
I7
a(lp2884
I1
aI3
aaa(lp2885
I0
a(lp2886
I1
aI2
aaa(lp2887
I1
a(lp2888
I1
aI2
aaa(lp2889
I2
a(lp2890
I1
aI2
aaa(lp2891
I3
a(lp2892
I1
aI2
aaa(lp2893
I4
a(lp2894
I1
aI3
aaa(lp2895
I5
a(lp2896
I1
aI3
aaa(lp2897
I6
a(lp2898
I1
aI3
aaa(lp2899
I7
a(lp2900
I1
aI3
aaaa(lp2901
(lp2902
I0
a(lp2903
I1
aI2
aaa(lp2904
I1
a(lp2905
I1
aI2
aaa(lp2906
I2
a(lp2907
I1
aI2
aaa(lp2908
I3
a(lp2909
I1
aI2
aaa(lp2910
I4
a(lp2911
I1
aI3
aaa(lp2912
I5
a(lp2913
I1
aI3
aaa(lp2914
I6
a(lp2915
I1
aI3
aaa(lp2916
I7
a(lp2917
I1
aI3
aaa(lp2918
I0
a(lp2919
I1
aI2
aaa(lp2920
I1
a(lp2921
I1
aI2
aaa(lp2922
I2
a(lp2923
I1
aI2
aaa(lp2924
I3
a(lp2925
I1
aI2
aaa(lp2926
I4
a(lp2927
I1
aI3
aaa(lp2928
I5
a(lp2929
I1
aI3
aaa(lp2930
I6
a(lp2931
I1
aI3
aaa(lp2932
I7
a(lp2933
I1
aI3
aaa(lp2934
I0
a(lp2935
I1
aI2
aaa(lp2936
I1
a(lp2937
I1
aI2
aaa(lp2938
I2
a(lp2939
I1
aI2
aaa(lp2940
I3
a(lp2941
I1
aI2
aaa(lp2942
I4
a(lp2943
I1
aI3
aaa(lp2944
I5
a(lp2945
I1
aI3
aaa(lp2946
I6
a(lp2947
I1
aI3
aaa(lp2948
I7
a(lp2949
I1
aI3
aaa(lp2950
I0
a(lp2951
I1
aI2
aaa(lp2952
I1
a(lp2953
I1
aI2
aaa(lp2954
I2
a(lp2955
I1
aI2
aaa(lp2956
I3
a(lp2957
I1
aI2
aaa(lp2958
I4
a(lp2959
I1
aI3
aaa(lp2960
I5
a(lp2961
I1
aI3
aaa(lp2962
I6
a(lp2963
I2
aI1
aI3
aaa(lp2964
I7
a(lp2965
I1
aI3
aaa(lp2966
I0
a(lp2967
I1
aI2
aaa(lp2968
I1
a(lp2969
I1
aI2
aaa(lp2970
I2
a(lp2971
I1
aI2
aaa(lp2972
I3
a(lp2973
I1
aI2
aaa(lp2974
I4
a(lp2975
I1
aI3
aaa(lp2976
I5
a(lp2977
I1
aI3
aaa(lp2978
I6
a(lp2979
I1
aI3
aaa(lp2980
I7
a(lp2981
I1
aI3
aaa(lp2982
I0
a(lp2983
I1
aI2
aaa(lp2984
I1
a(lp2985
I1
aI2
aaa(lp2986
I2
a(lp2987
I1
aI2
aaa(lp2988
I3
a(lp2989
I1
aI2
aaa(lp2990
I4
a(lp2991
I1
aI3
aaa(lp2992
I5
a(lp2993
I1
aI3
aaa(lp2994
I6
a(lp2995
I1
aI3
aaa(lp2996
I7
a(lp2997
I1
aI3
aaa(lp2998
I0
a(lp2999
I1
aI2
aaa(lp3000
I1
a(lp3001
I1
aI2
aaa(lp3002
I2
a(lp3003
I1
aI2
aaa(lp3004
I3
a(lp3005
I1
aI2
aaa(lp3006
I4
a(lp3007
I1
aI3
aaa(lp3008
I5
a(lp3009
I1
aI3
aaa(lp3010
I6
a(lp3011
I1
aI3
aaa(lp3012
I7
a(lp3013
I1
aI3
aaa(lp3014
I0
a(lp3015
I1
aI2
aaa(lp3016
I1
a(lp3017
I1
aI2
aaa(lp3018
I2
a(lp3019
I1
aI2
aaa(lp3020
I3
a(lp3021
I1
aI2
aaa(lp3022
I4
a(lp3023
I1
aI3
aaa(lp3024
I5
a(lp3025
I1
aI3
aaa(lp3026
I6
a(lp3027
I1
aI3
aaa(lp3028
I7
a(lp3029
I1
aI3
aaa(lp3030
I0
a(lp3031
I1
aI2
aaa(lp3032
I1
a(lp3033
I1
aI2
aaa(lp3034
I2
a(lp3035
I1
aI2
aaa(lp3036
I3
a(lp3037
I1
aI2
aaa(lp3038
I4
a(lp3039
I1
aI3
aaa(lp3040
I5
a(lp3041
I1
aI3
aaa(lp3042
I6
a(lp3043
I1
aI3
aaa(lp3044
I7
a(lp3045
I1
aI3
aaaa(lp3046
(lp3047
I0
a(lp3048
I1
aI2
aaa(lp3049
I1
a(lp3050
I1
aI2
aaa(lp3051
I2
a(lp3052
I1
aI2
aaa(lp3053
I3
a(lp3054
I1
aI2
aaa(lp3055
I4
a(lp3056
I1
aI3
aaa(lp3057
I5
a(lp3058
I1
aI3
aaa(lp3059
I6
a(lp3060
I1
aI3
aaa(lp3061
I7
a(lp3062
I1
aI3
aaa(lp3063
I0
a(lp3064
I2
aI1
aaa(lp3065
I1
a(lp3066
I1
aI2
aaa(lp3067
I2
a(lp3068
I1
aI2
aaa(lp3069
I3
a(lp3070
I1
aI2
aaa(lp3071
I4
a(lp3072
I1
aI3
aaa(lp3073
I5
a(lp3074
I1
aI3
aaa(lp3075
I6
a(lp3076
I1
aI3
aaa(lp3077
I7
a(lp3078
I1
aI3
aaa(lp3079
I0
a(lp3080
I1
aI2
aaa(lp3081
I1
a(lp3082
I1
aI2
aaa(lp3083
I2
a(lp3084
I1
aI2
aaa(lp3085
I3
a(lp3086
I1
aI2
aaa(lp3087
I4
a(lp3088
I1
aI3
aaa(lp3089
I5
a(lp3090
I1
aI3
aaa(lp3091
I6
a(lp3092
I1
aI3
aaa(lp3093
I7
a(lp3094
I1
aI3
aaa(lp3095
I0
a(lp3096
I1
aI2
aaa(lp3097
I1
a(lp3098
I1
aI2
aaa(lp3099
I2
a(lp3100
I1
aI2
aaa(lp3101
I3
a(lp3102
I1
aI2
aaa(lp3103
I4
a(lp3104
I1
aI3
aaa(lp3105
I5
a(lp3106
I1
aI3
aaa(lp3107
I6
a(lp3108
I1
aI3
aaa(lp3109
I7
a(lp3110
I1
aI3
aaa(lp3111
I0
a(lp3112
I1
aI2
aaa(lp3113
I1
a(lp3114
I1
aI2
aaa(lp3115
I2
a(lp3116
I1
aI2
aaa(lp3117
I3
a(lp3118
I1
aI2
aaa(lp3119
I4
a(lp3120
I1
aI3
aaa(lp3121
I5
a(lp3122
I1
aI3
aaa(lp3123
I6
a(lp3124
I1
aI3
aaa(lp3125
I7
a(lp3126
I1
aI3
aaa(lp3127
I0
a(lp3128
I1
aI2
aaa(lp3129
I1
a(lp3130
I1
aI2
aaa(lp3131
I2
a(lp3132
I1
aI2
aaa(lp3133
I3
a(lp3134
I1
aI2
aaa(lp3135
I4
a(lp3136
I1
aI3
aaa(lp3137
I5
a(lp3138
I1
aI3
aaa(lp3139
I6
a(lp3140
I1
aI3
aaa(lp3141
I7
a(lp3142
I1
aI3
aaa(lp3143
I0
a(lp3144
I1
aI2
aaa(lp3145
I1
a(lp3146
I1
aI2
aaa(lp3147
I2
a(lp3148
I1
aI2
aaa(lp3149
I3
a(lp3150
I1
aI2
aaa(lp3151
I4
a(lp3152
I1
aI3
aaa(lp3153
I5
a(lp3154
I1
aI3
aaa(lp3155
I6
a(lp3156
I1
aI3
aaa(lp3157
I7
a(lp3158
I1
aI3
aaa(lp3159
I0
a(lp3160
I1
aI2
aaa(lp3161
I1
a(lp3162
I1
aI2
aaa(lp3163
I2
a(lp3164
I1
aI2
aaa(lp3165
I3
a(lp3166
I1
aI2
aaa(lp3167
I4
a(lp3168
I1
aI3
aaa(lp3169
I5
a(lp3170
I1
aI3
aaa(lp3171
I6
a(lp3172
I1
aI3
aaa(lp3173
I7
a(lp3174
I1
aI3
aaa(lp3175
I0
a(lp3176
I1
aI2
aaa(lp3177
I1
a(lp3178
I1
aI2
aaa(lp3179
I2
a(lp3180
I1
aI2
aaa(lp3181
I3
a(lp3182
I1
aI2
aaa(lp3183
I4
a(lp3184
I1
aI3
aaa(lp3185
I5
a(lp3186
I1
aI3
aaa(lp3187
I6
a(lp3188
I1
aI3
aaa(lp3189
I7
a(lp3190
I1
aI3
aaaa(lp3191
(lp3192
I0
a(lp3193
I1
aI2
aaa(lp3194
I1
a(lp3195
I1
aI2
aaa(lp3196
I2
a(lp3197
I1
aI2
aaa(lp3198
I3
a(lp3199
I1
aI2
aaa(lp3200
I4
a(lp3201
I1
aI3
aaa(lp3202
I5
a(lp3203
I1
aI3
aaa(lp3204
I6
a(lp3205
I1
aI3
aaa(lp3206
I7
a(lp3207
I1
aI3
aaa(lp3208
I0
a(lp3209
I1
aI2
aaa(lp3210
I1
a(lp3211
I1
aI2
aaa(lp3212
I2
a(lp3213
I1
aI2
aaa(lp3214
I3
a(lp3215
I1
aI2
aaa(lp3216
I4
a(lp3217
I1
aI3
aaa(lp3218
I5
a(lp3219
I1
aI3
aaa(lp3220
I6
a(lp3221
I1
aI3
aaa(lp3222
I7
a(lp3223
I1
aI3
aaa(lp3224
I0
a(lp3225
I1
aI2
aaa(lp3226
I1
a(lp3227
I1
aI2
aaa(lp3228
I2
a(lp3229
I1
aI2
aaa(lp3230
I3
a(lp3231
I1
aI2
aaa(lp3232
I4
a(lp3233
I1
aI3
aaa(lp3234
I5
a(lp3235
I1
aI3
aaa(lp3236
I6
a(lp3237
I1
aI3
aaa(lp3238
I7
a(lp3239
I1
aI3
aaa(lp3240
I0
a(lp3241
I1
aI2
aaa(lp3242
I1
a(lp3243
I1
aI2
aaa(lp3244
I2
a(lp3245
I1
aI2
aaa(lp3246
I3
a(lp3247
I1
aI2
aaa(lp3248
I4
a(lp3249
I1
aI3
aaa(lp3250
I5
a(lp3251
I1
aI3
aaa(lp3252
I6
a(lp3253
I1
aI3
aaa(lp3254
I7
a(lp3255
I1
aI3
aaa(lp3256
I0
a(lp3257
I1
aI2
aaa(lp3258
I1
a(lp3259
I1
aI2
aaa(lp3260
I2
a(lp3261
I1
aI2
aaa(lp3262
I3
a(lp3263
I1
aI2
aaa(lp3264
I4
a(lp3265
I1
aI3
aaa(lp3266
I5
a(lp3267
I1
aI3
aaa(lp3268
I6
a(lp3269
I1
aI3
aaa(lp3270
I7
a(lp3271
I1
aI3
aaa(lp3272
I0
a(lp3273
I1
aI2
aaa(lp3274
I1
a(lp3275
I1
aI2
aaa(lp3276
I2
a(lp3277
I1
aI2
aaa(lp3278
I3
a(lp3279
I1
aI2
aaa(lp3280
I4
a(lp3281
I1
aI3
aaa(lp3282
I5
a(lp3283
I1
aI3
aaa(lp3284
I6
a(lp3285
I1
aI3
aaa(lp3286
I7
a(lp3287
I1
aI3
aaa(lp3288
I0
a(lp3289
I1
aI2
aaa(lp3290
I1
a(lp3291
I1
aI2
aaa(lp3292
I2
a(lp3293
I1
aI2
aaa(lp3294
I3
a(lp3295
I1
aI2
aaa(lp3296
I4
a(lp3297
I1
aI3
aaa(lp3298
I5
a(lp3299
I1
aI3
aaa(lp3300
I6
a(lp3301
I1
aI3
aaa(lp3302
I7
a(lp3303
I1
aI3
aaa(lp3304
I0
a(lp3305
I1
aI2
aaa(lp3306
I1
a(lp3307
I1
aI2
aaa(lp3308
I2
a(lp3309
I1
aI2
aaa(lp3310
I3
a(lp3311
I1
aI2
aaa(lp3312
I4
a(lp3313
I1
aI3
aaa(lp3314
I5
a(lp3315
I1
aI3
aaa(lp3316
I6
a(lp3317
I1
aI3
aaa(lp3318
I7
a(lp3319
I1
aI3
aaa(lp3320
I0
a(lp3321
I1
aI2
aaa(lp3322
I1
a(lp3323
I1
aI2
aaa(lp3324
I2
a(lp3325
I1
aI2
aaa(lp3326
I3
a(lp3327
I1
aI2
aaa(lp3328
I4
a(lp3329
I1
aI3
aaa(lp3330
I5
a(lp3331
I1
aI3
aaa(lp3332
I6
a(lp3333
I1
aI3
aaa(lp3334
I7
a(lp3335
I1
aI3
aaaa(lp3336
(lp3337
I0
a(lp3338
I1
aI2
aaa(lp3339
I1
a(lp3340
I2
aI1
aaa(lp3341
I2
a(lp3342
I1
aI2
aaa(lp3343
I3
a(lp3344
I1
aI2
aaa(lp3345
I4
a(lp3346
I1
aI3
aaa(lp3347
I5
a(lp3348
I1
aI3
aaa(lp3349
I6
a(lp3350
I1
aI3
aaa(lp3351
I7
a(lp3352
I1
aI3
aaa(lp3353
I0
a(lp3354
I1
aI2
aaa(lp3355
I1
a(lp3356
I1
aI2
aaa(lp3357
I2
a(lp3358
I1
aI2
aaa(lp3359
I3
a(lp3360
I1
aI2
aaa(lp3361
I4
a(lp3362
I1
aI3
aaa(lp3363
I5
a(lp3364
I1
aI3
aaa(lp3365
I6
a(lp3366
I1
aI3
aaa(lp3367
I7
a(lp3368
I1
aI3
aaa(lp3369
I0
a(lp3370
I1
aI2
aaa(lp3371
I1
a(lp3372
I1
aI2
aaa(lp3373
I2
a(lp3374
I1
aI2
aaa(lp3375
I3
a(lp3376
I1
aI2
aaa(lp3377
I4
a(lp3378
I1
aI3
aaa(lp3379
I5
a(lp3380
I1
aI3
aaa(lp3381
I6
a(lp3382
I1
aI3
aaa(lp3383
I7
a(lp3384
I1
aI3
aaa(lp3385
I0
a(lp3386
I1
aI2
aaa(lp3387
I1
a(lp3388
I1
aI2
aaa(lp3389
I2
a(lp3390
I1
aI2
aaa(lp3391
I3
a(lp3392
I1
aI2
aaa(lp3393
I4
a(lp3394
I1
aI3
aaa(lp3395
I5
a(lp3396
I1
aI3
aaa(lp3397
I6
a(lp3398
I1
aI3
aaa(lp3399
I7
a(lp3400
I1
aI3
aaa(lp3401
I0
a(lp3402
I1
aI2
aaa(lp3403
I1
a(lp3404
I1
aI2
aaa(lp3405
I2
a(lp3406
I1
aI2
aaa(lp3407
I3
a(lp3408
I1
aI2
aaa(lp3409
I4
a(lp3410
I1
aI3
aaa(lp3411
I5
a(lp3412
I1
aI3
aaa(lp3413
I6
a(lp3414
I1
aI3
aaa(lp3415
I7
a(lp3416
I1
aI3
aaa(lp3417
I0
a(lp3418
I1
aI2
aaa(lp3419
I1
a(lp3420
I1
aI2
aaa(lp3421
I2
a(lp3422
I1
aI2
aaa(lp3423
I3
a(lp3424
I1
aI2
aaa(lp3425
I4
a(lp3426
I1
aI3
aaa(lp3427
I5
a(lp3428
I1
aI3
aaa(lp3429
I6
a(lp3430
I1
aI3
aaa(lp3431
I7
a(lp3432
I1
aI3
aaa(lp3433
I0
a(lp3434
I1
aI2
aaa(lp3435
I1
a(lp3436
I1
aI2
aaa(lp3437
I2
a(lp3438
I1
aI2
aaa(lp3439
I3
a(lp3440
I1
aI2
aaa(lp3441
I4
a(lp3442
I1
aI3
aaa(lp3443
I5
a(lp3444
I1
aI3
aaa(lp3445
I6
a(lp3446
I1
aI3
aaa(lp3447
I7
a(lp3448
I1
aI3
aaa(lp3449
I0
a(lp3450
I1
aI2
aaa(lp3451
I1
a(lp3452
I1
aI2
aaa(lp3453
I2
a(lp3454
I1
aI2
aaa(lp3455
I3
a(lp3456
I1
aI2
aaa(lp3457
I4
a(lp3458
I1
aI3
aaa(lp3459
I5
a(lp3460
I1
aI3
aaa(lp3461
I6
a(lp3462
I1
aI3
aaa(lp3463
I7
a(lp3464
I1
aI3
aaa(lp3465
I0
a(lp3466
I1
aI2
aaa(lp3467
I1
a(lp3468
I1
aI2
aaa(lp3469
I2
a(lp3470
I1
aI2
aaa(lp3471
I3
a(lp3472
I1
aI2
aaa(lp3473
I4
a(lp3474
I1
aI3
aaa(lp3475
I5
a(lp3476
I1
aI3
aaa(lp3477
I6
a(lp3478
I1
aI3
aaa(lp3479
I7
a(lp3480
I1
aI3
aaaa(lp3481
(lp3482
I0
a(lp3483
I1
aI2
aaa(lp3484
I1
a(lp3485
I1
aI2
aaa(lp3486
I2
a(lp3487
I1
aI2
aaa(lp3488
I3
a(lp3489
I1
aI2
aaa(lp3490
I4
a(lp3491
I1
aI3
aaa(lp3492
I5
a(lp3493
I1
aI3
aaa(lp3494
I6
a(lp3495
I1
aI3
aaa(lp3496
I7
a(lp3497
I1
aI3
aaa(lp3498
I0
a(lp3499
I1
aI2
aaa(lp3500
I1
a(lp3501
I1
aI2
aaa(lp3502
I2
a(lp3503
I1
aI2
aaa(lp3504
I3
a(lp3505
I1
aI2
aaa(lp3506
I4
a(lp3507
I1
aI3
aaa(lp3508
I5
a(lp3509
I1
aI3
aaa(lp3510
I6
a(lp3511
I1
aI3
aaa(lp3512
I7
a(lp3513
I1
aI3
aaa(lp3514
I0
a(lp3515
I1
aI2
aaa(lp3516
I1
a(lp3517
I1
aI2
aaa(lp3518
I2
a(lp3519
I1
aI2
aaa(lp3520
I3
a(lp3521
I1
aI2
aaa(lp3522
I4
a(lp3523
I1
aI3
aaa(lp3524
I5
a(lp3525
I1
aI3
aaa(lp3526
I6
a(lp3527
I1
aI3
aaa(lp3528
I7
a(lp3529
I1
aI3
aaa(lp3530
I0
a(lp3531
I1
aI2
aaa(lp3532
I1
a(lp3533
I1
aI2
aaa(lp3534
I2
a(lp3535
I1
aI2
aaa(lp3536
I3
a(lp3537
I1
aI2
aaa(lp3538
I4
a(lp3539
I1
aI3
aaa(lp3540
I5
a(lp3541
I1
aI3
aaa(lp3542
I6
a(lp3543
I1
aI3
aaa(lp3544
I7
a(lp3545
I1
aI3
aaa(lp3546
I0
a(lp3547
I1
aI2
aaa(lp3548
I1
a(lp3549
I1
aI2
aaa(lp3550
I2
a(lp3551
I1
aI2
aaa(lp3552
I3
a(lp3553
I1
aI2
aaa(lp3554
I4
a(lp3555
I1
aI3
aaa(lp3556
I5
a(lp3557
I1
aI3
aaa(lp3558
I6
a(lp3559
I1
aI3
aaa(lp3560
I7
a(lp3561
I1
aI3
aaa(lp3562
I0
a(lp3563
I1
aI2
aaa(lp3564
I1
a(lp3565
I1
aI2
aaa(lp3566
I2
a(lp3567
I1
aI2
aaa(lp3568
I3
a(lp3569
I1
aI2
aaa(lp3570
I4
a(lp3571
I1
aI3
aaa(lp3572
I5
a(lp3573
I1
aI3
aaa(lp3574
I6
a(lp3575
I1
aI3
aaa(lp3576
I7
a(lp3577
I1
aI3
aaa(lp3578
I0
a(lp3579
I1
aI2
aaa(lp3580
I1
a(lp3581
I1
aI2
aaa(lp3582
I2
a(lp3583
I1
aI2
aaa(lp3584
I3
a(lp3585
I1
aI2
aaa(lp3586
I4
a(lp3587
I1
aI3
aaa(lp3588
I5
a(lp3589
I1
aI3
aaa(lp3590
I6
a(lp3591
I1
aI3
aaa(lp3592
I7
a(lp3593
I1
aI3
aaa(lp3594
I0
a(lp3595
I1
aI2
aaa(lp3596
I1
a(lp3597
I1
aI2
aaa(lp3598
I2
a(lp3599
I1
aI2
aaa(lp3600
I3
a(lp3601
I1
aI2
aaa(lp3602
I4
a(lp3603
I1
aI3
aaa(lp3604
I5
a(lp3605
I1
aI3
aaa(lp3606
I6
a(lp3607
I1
aI3
aaa(lp3608
I7
a(lp3609
I1
aI3
aaa(lp3610
I0
a(lp3611
I1
aI2
aaa(lp3612
I1
a(lp3613
I1
aI2
aaa(lp3614
I2
a(lp3615
I1
aI2
aaa(lp3616
I3
a(lp3617
I1
aI2
aaa(lp3618
I4
a(lp3619
I1
aI3
aaa(lp3620
I5
a(lp3621
I1
aI3
aaa(lp3622
I6
a(lp3623
I1
aI3
aaa(lp3624
I7
a(lp3625
I1
aI3
aaaa(lp3626
(lp3627
I0
a(lp3628
I1
aI2
aaa(lp3629
I1
a(lp3630
I1
aI2
aaa(lp3631
I2
a(lp3632
I2
aI1
aaa(lp3633
I3
a(lp3634
I1
aI2
aaa(lp3635
I4
a(lp3636
I1
aI3
aaa(lp3637
I5
a(lp3638
I1
aI3
aaa(lp3639
I6
a(lp3640
I1
aI3
aaa(lp3641
I7
a(lp3642
I1
aI3
aaa(lp3643
I0
a(lp3644
I1
aI2
aaa(lp3645
I1
a(lp3646
I1
aI2
aaa(lp3647
I2
a(lp3648
I1
aI2
aaa(lp3649
I3
a(lp3650
I1
aI2
aaa(lp3651
I4
a(lp3652
I1
aI3
aaa(lp3653
I5
a(lp3654
I1
aI3
aaa(lp3655
I6
a(lp3656
I1
aI3
aaa(lp3657
I7
a(lp3658
I1
aI3
aaa(lp3659
I0
a(lp3660
I1
aI2
aaa(lp3661
I1
a(lp3662
I1
aI2
aaa(lp3663
I2
a(lp3664
I1
aI2
aaa(lp3665
I3
a(lp3666
I1
aI2
aaa(lp3667
I4
a(lp3668
I1
aI3
aaa(lp3669
I5
a(lp3670
I1
aI3
aaa(lp3671
I6
a(lp3672
I1
aI3
aaa(lp3673
I7
a(lp3674
I1
aI3
aaa(lp3675
I0
a(lp3676
I1
aI2
aaa(lp3677
I1
a(lp3678
I1
aI2
aaa(lp3679
I2
a(lp3680
I1
aI2
aaa(lp3681
I3
a(lp3682
I1
aI2
aaa(lp3683
I4
a(lp3684
I1
aI3
aaa(lp3685
I5
a(lp3686
I1
aI3
aaa(lp3687
I6
a(lp3688
I1
aI3
aaa(lp3689
I7
a(lp3690
I1
aI3
aaa(lp3691
I0
a(lp3692
I1
aI2
aaa(lp3693
I1
a(lp3694
I1
aI2
aaa(lp3695
I2
a(lp3696
I1
aI2
aaa(lp3697
I3
a(lp3698
I1
aI2
aaa(lp3699
I4
a(lp3700
I1
aI3
aaa(lp3701
I5
a(lp3702
I1
aI3
aaa(lp3703
I6
a(lp3704
I1
aI3
aaa(lp3705
I7
a(lp3706
I1
aI3
aaa(lp3707
I0
a(lp3708
I1
aI2
aaa(lp3709
I1
a(lp3710
I1
aI2
aaa(lp3711
I2
a(lp3712
I1
aI2
aaa(lp3713
I3
a(lp3714
I1
aI2
aaa(lp3715
I4
a(lp3716
I1
aI3
aaa(lp3717
I5
a(lp3718
I1
aI3
aaa(lp3719
I6
a(lp3720
I1
aI3
aaa(lp3721
I7
a(lp3722
I1
aI3
aaa(lp3723
I0
a(lp3724
I1
aI2
aaa(lp3725
I1
a(lp3726
I1
aI2
aaa(lp3727
I2
a(lp3728
I1
aI2
aaa(lp3729
I3
a(lp3730
I1
aI2
aaa(lp3731
I4
a(lp3732
I1
aI3
aaa(lp3733
I5
a(lp3734
I1
aI3
aaa(lp3735
I6
a(lp3736
I1
aI3
aaa(lp3737
I7
a(lp3738
I1
aI3
aaa(lp3739
I0
a(lp3740
I1
aI2
aaa(lp3741
I1
a(lp3742
I1
aI2
aaa(lp3743
I2
a(lp3744
I1
aI2
aaa(lp3745
I3
a(lp3746
I1
aI2
aaa(lp3747
I4
a(lp3748
I1
aI3
aaa(lp3749
I5
a(lp3750
I1
aI3
aaa(lp3751
I6
a(lp3752
I1
aI3
aaa(lp3753
I7
a(lp3754
I1
aI3
aaa(lp3755
I0
a(lp3756
I1
aI2
aaa(lp3757
I1
a(lp3758
I1
aI2
aaa(lp3759
I2
a(lp3760
I1
aI2
aaa(lp3761
I3
a(lp3762
I1
aI2
aaa(lp3763
I4
a(lp3764
I1
aI3
aaa(lp3765
I5
a(lp3766
I1
aI3
aaa(lp3767
I6
a(lp3768
I1
aI3
aaa(lp3769
I7
a(lp3770
I1
aI3
aaaa(lp3771
(lp3772
I0
a(lp3773
I1
aI2
aaa(lp3774
I1
a(lp3775
I1
aI2
aaa(lp3776
I2
a(lp3777
I1
aI2
aaa(lp3778
I3
a(lp3779
I1
aI2
aaa(lp3780
I4
a(lp3781
I1
aI3
aaa(lp3782
I5
a(lp3783
I1
aI3
aaa(lp3784
I6
a(lp3785
I1
aI3
aaa(lp3786
I7
a(lp3787
I1
aI3
aaa(lp3788
I0
a(lp3789
I1
aI2
aaa(lp3790
I1
a(lp3791
I1
aI2
aaa(lp3792
I2
a(lp3793
I1
aI2
aaa(lp3794
I3
a(lp3795
I1
aI2
aaa(lp3796
I4
a(lp3797
I1
aI3
aaa(lp3798
I5
a(lp3799
I1
aI3
aaa(lp3800
I6
a(lp3801
I1
aI3
aaa(lp3802
I7
a(lp3803
I1
aI3
aaa(lp3804
I0
a(lp3805
I1
aI2
aaa(lp3806
I1
a(lp3807
I1
aI2
aaa(lp3808
I2
a(lp3809
I1
aI2
aaa(lp3810
I3
a(lp3811
I1
aI2
aaa(lp3812
I4
a(lp3813
I1
aI3
aaa(lp3814
I5
a(lp3815
I1
aI3
aaa(lp3816
I6
a(lp3817
I1
aI3
aaa(lp3818
I7
a(lp3819
I1
aI3
aaa(lp3820
I0
a(lp3821
I1
aI2
aaa(lp3822
I1
a(lp3823
I1
aI2
aaa(lp3824
I2
a(lp3825
I1
aI2
aaa(lp3826
I3
a(lp3827
I1
aI2
aaa(lp3828
I4
a(lp3829
I1
aI3
aaa(lp3830
I5
a(lp3831
I1
aI3
aaa(lp3832
I6
a(lp3833
I1
aI3
aaa(lp3834
I7
a(lp3835
I1
aI3
aaa(lp3836
I0
a(lp3837
I1
aI2
aaa(lp3838
I1
a(lp3839
I1
aI2
aaa(lp3840
I2
a(lp3841
I1
aI2
aaa(lp3842
I3
a(lp3843
I1
aI2
aaa(lp3844
I4
a(lp3845
I1
aI3
aaa(lp3846
I5
a(lp3847
I1
aI3
aaa(lp3848
I6
a(lp3849
I1
aI3
aaa(lp3850
I7
a(lp3851
I1
aI3
aaa(lp3852
I0
a(lp3853
I1
aI2
aaa(lp3854
I1
a(lp3855
I1
aI2
aaa(lp3856
I2
a(lp3857
I1
aI2
aaa(lp3858
I3
a(lp3859
I1
aI2
aaa(lp3860
I4
a(lp3861
I1
aI3
aaa(lp3862
I5
a(lp3863
I1
aI3
aaa(lp3864
I6
a(lp3865
I1
aI3
aaa(lp3866
I7
a(lp3867
I1
aI3
aaa(lp3868
I0
a(lp3869
I1
aI2
aaa(lp3870
I1
a(lp3871
I1
aI2
aaa(lp3872
I2
a(lp3873
I1
aI2
aaa(lp3874
I3
a(lp3875
I1
aI2
aaa(lp3876
I4
a(lp3877
I1
aI3
aaa(lp3878
I5
a(lp3879
I1
aI3
aaa(lp3880
I6
a(lp3881
I1
aI3
aaa(lp3882
I7
a(lp3883
I1
aI3
aaa(lp3884
I0
a(lp3885
I1
aI2
aaa(lp3886
I1
a(lp3887
I1
aI2
aaa(lp3888
I2
a(lp3889
I1
aI2
aaa(lp3890
I3
a(lp3891
I1
aI2
aaa(lp3892
I4
a(lp3893
I1
aI3
aaa(lp3894
I5
a(lp3895
I1
aI3
aaa(lp3896
I6
a(lp3897
I1
aI3
aaa(lp3898
I7
a(lp3899
I1
aI3
aaa(lp3900
I0
a(lp3901
I1
aI2
aaa(lp3902
I1
a(lp3903
I1
aI2
aaa(lp3904
I2
a(lp3905
I1
aI2
aaa(lp3906
I3
a(lp3907
I1
aI2
aaa(lp3908
I4
a(lp3909
I1
aI3
aaa(lp3910
I5
a(lp3911
I1
aI3
aaa(lp3912
I6
a(lp3913
I1
aI3
aaa(lp3914
I7
a(lp3915
I1
aI3
aaaa(lp3916
(lp3917
I0
a(lp3918
I1
aI2
aaa(lp3919
I1
a(lp3920
I1
aI2
aaa(lp3921
I2
a(lp3922
I1
aI2
aaa(lp3923
I3
a(lp3924
I1
aI2
aaa(lp3925
I4
a(lp3926
I1
aI3
aaa(lp3927
I5
a(lp3928
I1
aI3
aaa(lp3929
I6
a(lp3930
I1
aI3
aaa(lp3931
I7
a(lp3932
I1
aI3
aaa(lp3933
I0
a(lp3934
I1
aI2
aaa(lp3935
I1
a(lp3936
I1
aI2
aaa(lp3937
I2
a(lp3938
I1
aI2
aaa(lp3939
I3
a(lp3940
I1
aI2
aaa(lp3941
I4
a(lp3942
I1
aI3
aaa(lp3943
I5
a(lp3944
I1
aI3
aaa(lp3945
I6
a(lp3946
I1
aI3
aaa(lp3947
I7
a(lp3948
I1
aI3
aaa(lp3949
I0
a(lp3950
I1
aI2
aaa(lp3951
I1
a(lp3952
I1
aI2
aaa(lp3953
I2
a(lp3954
I1
aI2
aaa(lp3955
I3
a(lp3956
I1
aI2
aaa(lp3957
I4
a(lp3958
I1
aI3
aaa(lp3959
I5
a(lp3960
I1
aI3
aaa(lp3961
I6
a(lp3962
I1
aI3
aaa(lp3963
I7
a(lp3964
I1
aI3
aaa(lp3965
I0
a(lp3966
I1
aI2
aaa(lp3967
I1
a(lp3968
I1
aI2
aaa(lp3969
I2
a(lp3970
I1
aI2
aaa(lp3971
I3
a(lp3972
I1
aI2
aaa(lp3973
I4
a(lp3974
I1
aI3
aaa(lp3975
I5
a(lp3976
I1
aI3
aaa(lp3977
I6
a(lp3978
I1
aI3
aaa(lp3979
I7
a(lp3980
I1
aI3
aaa(lp3981
I0
a(lp3982
I1
aI2
aaa(lp3983
I1
a(lp3984
I1
aI2
aaa(lp3985
I2
a(lp3986
I2
aI1
aaa(lp3987
I3
a(lp3988
I1
aI2
aaa(lp3989
I4
a(lp3990
I1
aI3
aaa(lp3991
I5
a(lp3992
I1
aI3
aaa(lp3993
I6
a(lp3994
I1
aI3
aaa(lp3995
I7
a(lp3996
I1
aI3
aaa(lp3997
I0
a(lp3998
I1
aI2
aaa(lp3999
I1
a(lp4000
I1
aI2
aaa(lp4001
I2
a(lp4002
I1
aI2
aaa(lp4003
I3
a(lp4004
I1
aI2
aaa(lp4005
I4
a(lp4006
I1
aI3
aaa(lp4007
I5
a(lp4008
I1
aI3
aaa(lp4009
I6
a(lp4010
I1
aI3
aaa(lp4011
I7
a(lp4012
I1
aI3
aaa(lp4013
I0
a(lp4014
I1
aI2
aaa(lp4015
I1
a(lp4016
I1
aI2
aaa(lp4017
I2
a(lp4018
I1
aI2
aaa(lp4019
I3
a(lp4020
I1
aI2
aaa(lp4021
I4
a(lp4022
I1
aI3
aaa(lp4023
I5
a(lp4024
I1
aI3
aaa(lp4025
I6
a(lp4026
I1
aI3
aaa(lp4027
I7
a(lp4028
I1
aI3
aaa(lp4029
I0
a(lp4030
I1
aI2
aaa(lp4031
I1
a(lp4032
I1
aI2
aaa(lp4033
I2
a(lp4034
I1
aI2
aaa(lp4035
I3
a(lp4036
I1
aI2
aaa(lp4037
I4
a(lp4038
I1
aI3
aaa(lp4039
I5
a(lp4040
I1
aI3
aaa(lp4041
I6
a(lp4042
I1
aI3
aaa(lp4043
I7
a(lp4044
I1
aI3
aaa(lp4045
I0
a(lp4046
I1
aI2
aaa(lp4047
I1
a(lp4048
I1
aI2
aaa(lp4049
I2
a(lp4050
I1
aI2
aaa(lp4051
I3
a(lp4052
I1
aI2
aaa(lp4053
I4
a(lp4054
I1
aI3
aaa(lp4055
I5
a(lp4056
I3
aI1
aaa(lp4057
I6
a(lp4058
I1
aI3
aaa(lp4059
I7
a(lp4060
I2
aI1
aI3
aaaa(lp4061
(lp4062
I0
a(lp4063
I1
aI2
aaa(lp4064
I1
a(lp4065
I1
aI2
aaa(lp4066
I2
a(lp4067
I1
aI2
aaa(lp4068
I3
a(lp4069
I1
aI2
aaa(lp4070
I4
a(lp4071
I1
aI3
aaa(lp4072
I5
a(lp4073
I1
aI3
aaa(lp4074
I6
a(lp4075
I1
aI3
aaa(lp4076
I7
a(lp4077
I1
aI3
aaa(lp4078
I0
a(lp4079
I1
aI2
aaa(lp4080
I1
a(lp4081
I1
aI2
aaa(lp4082
I2
a(lp4083
I1
aI2
aaa(lp4084
I3
a(lp4085
I1
aI2
aaa(lp4086
I4
a(lp4087
I1
aI3
aaa(lp4088
I5
a(lp4089
I1
aI3
aaa(lp4090
I6
a(lp4091
I1
aI3
aaa(lp4092
I7
a(lp4093
I1
aI3
aaa(lp4094
I0
a(lp4095
I1
aI2
aaa(lp4096
I1
a(lp4097
I1
aI2
aaa(lp4098
I2
a(lp4099
I1
aI2
aaa(lp4100
I3
a(lp4101
I1
aI2
aaa(lp4102
I4
a(lp4103
I1
aI3
aaa(lp4104
I5
a(lp4105
I1
aI3
aaa(lp4106
I6
a(lp4107
I1
aI3
aaa(lp4108
I7
a(lp4109
I1
aI3
aaa(lp4110
I0
a(lp4111
I1
aI2
aaa(lp4112
I1
a(lp4113
I1
aI2
aaa(lp4114
I2
a(lp4115
I1
aI2
aaa(lp4116
I3
a(lp4117
I1
aI2
aaa(lp4118
I4
a(lp4119
I1
aI3
aaa(lp4120
I5
a(lp4121
I1
aI3
aaa(lp4122
I6
a(lp4123
I1
aI3
aaa(lp4124
I7
a(lp4125
I1
aI3
aaa(lp4126
I0
a(lp4127
I1
aI2
aaa(lp4128
I1
a(lp4129
I1
aI2
aaa(lp4130
I2
a(lp4131
I1
aI2
aaa(lp4132
I3
a(lp4133
I1
aI2
aaa(lp4134
I4
a(lp4135
I1
aI3
aaa(lp4136
I5
a(lp4137
I1
aI3
aaa(lp4138
I6
a(lp4139
I1
aI3
aaa(lp4140
I7
a(lp4141
I1
aI3
aaa(lp4142
I0
a(lp4143
I1
aI2
aaa(lp4144
I1
a(lp4145
I1
aI2
aaa(lp4146
I2
a(lp4147
I1
aI2
aaa(lp4148
I3
a(lp4149
I1
aI2
aaa(lp4150
I4
a(lp4151
I1
aI3
aaa(lp4152
I5
a(lp4153
I1
aI3
aaa(lp4154
I6
a(lp4155
I1
aI3
aaa(lp4156
I7
a(lp4157
I1
aI3
aaa(lp4158
I0
a(lp4159
I1
aI2
aaa(lp4160
I1
a(lp4161
I1
aI2
aaa(lp4162
I2
a(lp4163
I1
aI2
aaa(lp4164
I3
a(lp4165
I1
aI2
aaa(lp4166
I4
a(lp4167
I1
aI3
aaa(lp4168
I5
a(lp4169
I1
aI3
aaa(lp4170
I6
a(lp4171
I1
aI3
aaa(lp4172
I7
a(lp4173
I1
aI3
aaa(lp4174
I0
a(lp4175
I1
aI2
aaa(lp4176
I1
a(lp4177
I1
aI2
aaa(lp4178
I2
a(lp4179
I1
aI2
aaa(lp4180
I3
a(lp4181
I1
aI2
aaa(lp4182
I4
a(lp4183
I1
aI3
aaa(lp4184
I5
a(lp4185
I1
aI3
aaa(lp4186
I6
a(lp4187
I1
aI3
aaa(lp4188
I7
a(lp4189
I1
aI3
aaa(lp4190
I0
a(lp4191
I1
aI2
aaa(lp4192
I1
a(lp4193
I1
aI2
aaa(lp4194
I2
a(lp4195
I1
aI2
aaa(lp4196
I3
a(lp4197
I1
aI2
aaa(lp4198
I4
a(lp4199
I1
aI3
aaa(lp4200
I5
a(lp4201
I1
aI3
aaa(lp4202
I6
a(lp4203
I1
aI3
aaa(lp4204
I7
a(lp4205
I1
aI3
aaaa(lp4206
(lp4207
I0
a(lp4208
I1
aI2
aaa(lp4209
I1
a(lp4210
I1
aI2
aaa(lp4211
I2
a(lp4212
I1
aI2
aaa(lp4213
I3
a(lp4214
I1
aI2
aaa(lp4215
I4
a(lp4216
I1
aI3
aaa(lp4217
I5
a(lp4218
I1
aI3
aaa(lp4219
I6
a(lp4220
I1
aI3
aaa(lp4221
I7
a(lp4222
I1
aI3
aaa(lp4223
I0
a(lp4224
I1
aI2
aaa(lp4225
I1
a(lp4226
I1
aI2
aaa(lp4227
I2
a(lp4228
I1
aI2
aaa(lp4229
I3
a(lp4230
I1
aI2
aaa(lp4231
I4
a(lp4232
I1
aI3
aaa(lp4233
I5
a(lp4234
I1
aI3
aaa(lp4235
I6
a(lp4236
I1
aI3
aaa(lp4237
I7
a(lp4238
I1
aI3
aaa(lp4239
I0
a(lp4240
I1
aI2
aaa(lp4241
I1
a(lp4242
I1
aI2
aaa(lp4243
I2
a(lp4244
I1
aI2
aaa(lp4245
I3
a(lp4246
I1
aI2
aaa(lp4247
I4
a(lp4248
I1
aI3
aaa(lp4249
I5
a(lp4250
I2
aI1
aI3
aaa(lp4251
I6
a(lp4252
I1
aI3
aaa(lp4253
I7
a(lp4254
I1
aI3
aaa(lp4255
I0
a(lp4256
I1
aI2
aaa(lp4257
I1
a(lp4258
I1
aI2
aaa(lp4259
I2
a(lp4260
I1
aI2
aaa(lp4261
I3
a(lp4262
I1
aI2
aaa(lp4263
I4
a(lp4264
I1
aI3
aaa(lp4265
I5
a(lp4266
I1
aI3
aaa(lp4267
I6
a(lp4268
I1
aI3
aaa(lp4269
I7
a(lp4270
I1
aI3
aaa(lp4271
I0
a(lp4272
I1
aI2
aaa(lp4273
I1
a(lp4274
I1
aI2
aaa(lp4275
I2
a(lp4276
I1
aI2
aaa(lp4277
I3
a(lp4278
I1
aI2
aaa(lp4279
I4
a(lp4280
I1
aI3
aaa(lp4281
I5
a(lp4282
I1
aI3
aaa(lp4283
I6
a(lp4284
I1
aI3
aaa(lp4285
I7
a(lp4286
I1
aI3
aaa(lp4287
I0
a(lp4288
I1
aI2
aaa(lp4289
I1
a(lp4290
I1
aI2
aaa(lp4291
I2
a(lp4292
I1
aI2
aaa(lp4293
I3
a(lp4294
I1
aI2
aaa(lp4295
I4
a(lp4296
I1
aI3
aaa(lp4297
I5
a(lp4298
I1
aI3
aaa(lp4299
I6
a(lp4300
I1
aI3
aaa(lp4301
I7
a(lp4302
I1
aI3
aaa(lp4303
I0
a(lp4304
I1
aI2
aaa(lp4305
I1
a(lp4306
I1
aI2
aaa(lp4307
I2
a(lp4308
I1
aI2
aaa(lp4309
I3
a(lp4310
I1
aI2
aaa(lp4311
I4
a(lp4312
I1
aI3
aaa(lp4313
I5
a(lp4314
I1
aI3
aaa(lp4315
I6
a(lp4316
I1
aI3
aaa(lp4317
I7
a(lp4318
I1
aI3
aaa(lp4319
I0
a(lp4320
I1
aI2
aaa(lp4321
I1
a(lp4322
I1
aI2
aaa(lp4323
I2
a(lp4324
I1
aI2
aaa(lp4325
I3
a(lp4326
I1
aI2
aaa(lp4327
I4
a(lp4328
I1
aI3
aaa(lp4329
I5
a(lp4330
I1
aI3
aaa(lp4331
I6
a(lp4332
I1
aI3
aaa(lp4333
I7
a(lp4334
I1
aI3
aaa(lp4335
I0
a(lp4336
I1
aI2
aaa(lp4337
I1
a(lp4338
I1
aI2
aaa(lp4339
I2
a(lp4340
I1
aI2
aaa(lp4341
I3
a(lp4342
I1
aI2
aaa(lp4343
I4
a(lp4344
I1
aI3
aaa(lp4345
I5
a(lp4346
I1
aI3
aaa(lp4347
I6
a(lp4348
I1
aI3
aaa(lp4349
I7
a(lp4350
I1
aI3
aaaa(lp4351
(lp4352
I0
a(lp4353
I1
aI2
aaa(lp4354
I1
a(lp4355
I1
aI2
aaa(lp4356
I2
a(lp4357
I1
aI2
aaa(lp4358
I3
a(lp4359
I1
aI2
aaa(lp4360
I4
a(lp4361
I1
aI3
aaa(lp4362
I5
a(lp4363
I1
aI3
aaa(lp4364
I6
a(lp4365
I1
aI3
aaa(lp4366
I7
a(lp4367
I1
aI3
aaa(lp4368
I0
a(lp4369
I1
aI2
aaa(lp4370
I1
a(lp4371
I1
aI2
aaa(lp4372
I2
a(lp4373
I1
aI2
aaa(lp4374
I3
a(lp4375
I1
aI2
aaa(lp4376
I4
a(lp4377
I1
aI3
aaa(lp4378
I5
a(lp4379
I1
aI3
aaa(lp4380
I6
a(lp4381
I1
aI3
aaa(lp4382
I7
a(lp4383
I1
aI3
aaa(lp4384
I0
a(lp4385
I1
aI2
aaa(lp4386
I1
a(lp4387
I1
aI2
aaa(lp4388
I2
a(lp4389
I1
aI2
aaa(lp4390
I3
a(lp4391
I1
aI2
aaa(lp4392
I4
a(lp4393
I1
aI3
aaa(lp4394
I5
a(lp4395
I1
aI3
aaa(lp4396
I6
a(lp4397
I1
aI3
aaa(lp4398
I7
a(lp4399
I1
aI3
aaa(lp4400
I0
a(lp4401
I1
aI2
aaa(lp4402
I1
a(lp4403
I1
aI2
aaa(lp4404
I2
a(lp4405
I1
aI2
aaa(lp4406
I3
a(lp4407
I1
aI2
aaa(lp4408
I4
a(lp4409
I1
aI3
aaa(lp4410
I5
a(lp4411
I1
aI3
aaa(lp4412
I6
a(lp4413
I1
aI3
aaa(lp4414
I7
a(lp4415
I1
aI3
aaa(lp4416
I0
a(lp4417
I1
aI2
aaa(lp4418
I1
a(lp4419
I1
aI2
aaa(lp4420
I2
a(lp4421
I1
aI2
aaa(lp4422
I3
a(lp4423
I1
aI2
aaa(lp4424
I4
a(lp4425
I1
aI3
aaa(lp4426
I5
a(lp4427
I1
aI3
aaa(lp4428
I6
a(lp4429
I1
aI3
aaa(lp4430
I7
a(lp4431
I1
aI3
aaa(lp4432
I0
a(lp4433
I1
aI2
aaa(lp4434
I1
a(lp4435
I1
aI2
aaa(lp4436
I2
a(lp4437
I1
aI2
aaa(lp4438
I3
a(lp4439
I1
aI2
aaa(lp4440
I4
a(lp4441
I1
aI3
aaa(lp4442
I5
a(lp4443
I1
aI3
aaa(lp4444
I6
a(lp4445
I1
aI3
aaa(lp4446
I7
a(lp4447
I1
aI3
aaa(lp4448
I0
a(lp4449
I1
aI2
aaa(lp4450
I1
a(lp4451
I1
aI2
aaa(lp4452
I2
a(lp4453
I1
aI2
aaa(lp4454
I3
a(lp4455
I1
aI2
aaa(lp4456
I4
a(lp4457
I1
aI3
aaa(lp4458
I5
a(lp4459
I1
aI3
aaa(lp4460
I6
a(lp4461
I3
aI1
aaa(lp4462
I7
a(lp4463
I1
aI3
aaa(lp4464
I0
a(lp4465
I1
aI2
aaa(lp4466
I1
a(lp4467
I1
aI2
aaa(lp4468
I2
a(lp4469
I1
aI2
aaa(lp4470
I3
a(lp4471
I1
aI2
aaa(lp4472
I4
a(lp4473
I1
aI3
aaa(lp4474
I5
a(lp4475
I1
aI3
aaa(lp4476
I6
a(lp4477
I1
aI3
aaa(lp4478
I7
a(lp4479
I1
aI3
aaa(lp4480
I0
a(lp4481
I1
aI2
aaa(lp4482
I1
a(lp4483
I1
aI2
aaa(lp4484
I2
a(lp4485
I1
aI2
aaa(lp4486
I3
a(lp4487
I1
aI2
aaa(lp4488
I4
a(lp4489
I1
aI3
aaa(lp4490
I5
a(lp4491
I1
aI3
aaa(lp4492
I6
a(lp4493
I1
aI3
aaa(lp4494
I7
a(lp4495
I1
aI3
aaaa(lp4496
(lp4497
I0
a(lp4498
I1
aI2
aaa(lp4499
I1
a(lp4500
I1
aI2
aaa(lp4501
I2
a(lp4502
I1
aI2
aaa(lp4503
I3
a(lp4504
I1
aI2
aaa(lp4505
I4
a(lp4506
I1
aI3
aaa(lp4507
I5
a(lp4508
I1
aI3
aaa(lp4509
I6
a(lp4510
I1
aI3
aaa(lp4511
I7
a(lp4512
I1
aI3
aaa(lp4513
I0
a(lp4514
I1
aI2
aaa(lp4515
I1
a(lp4516
I1
aI2
aaa(lp4517
I2
a(lp4518
I1
aI2
aaa(lp4519
I3
a(lp4520
I1
aI2
aaa(lp4521
I4
a(lp4522
I1
aI3
aaa(lp4523
I5
a(lp4524
I1
aI3
aaa(lp4525
I6
a(lp4526
I1
aI3
aaa(lp4527
I7
a(lp4528
I1
aI3
aaa(lp4529
I0
a(lp4530
I1
aI2
aaa(lp4531
I1
a(lp4532
I1
aI2
aaa(lp4533
I2
a(lp4534
I1
aI2
aaa(lp4535
I3
a(lp4536
I1
aI2
aaa(lp4537
I4
a(lp4538
I1
aI3
aaa(lp4539
I5
a(lp4540
I1
aI3
aaa(lp4541
I6
a(lp4542
I1
aI3
aaa(lp4543
I7
a(lp4544
I1
aI3
aaa(lp4545
I0
a(lp4546
I1
aI2
aaa(lp4547
I1
a(lp4548
I1
aI2
aaa(lp4549
I2
a(lp4550
I1
aI2
aaa(lp4551
I3
a(lp4552
I1
aI2
aaa(lp4553
I4
a(lp4554
I1
aI3
aaa(lp4555
I5
a(lp4556
I1
aI3
aaa(lp4557
I6
a(lp4558
I1
aI3
aaa(lp4559
I7
a(lp4560
I1
aI3
aaa(lp4561
I0
a(lp4562
I1
aI2
aaa(lp4563
I1
a(lp4564
I1
aI2
aaa(lp4565
I2
a(lp4566
I1
aI2
aaa(lp4567
I3
a(lp4568
I1
aI2
aaa(lp4569
I4
a(lp4570
I1
aI3
aaa(lp4571
I5
a(lp4572
I1
aI3
aaa(lp4573
I6
a(lp4574
I1
aI3
aaa(lp4575
I7
a(lp4576
I1
aI3
aaa(lp4577
I0
a(lp4578
I1
aI2
aaa(lp4579
I1
a(lp4580
I1
aI2
aaa(lp4581
I2
a(lp4582
I1
aI2
aaa(lp4583
I3
a(lp4584
I1
aI2
aaa(lp4585
I4
a(lp4586
I1
aI3
aaa(lp4587
I5
a(lp4588
I1
aI3
aaa(lp4589
I6
a(lp4590
I1
aI3
aaa(lp4591
I7
a(lp4592
I1
aI3
aaa(lp4593
I0
a(lp4594
I1
aI2
aaa(lp4595
I1
a(lp4596
I1
aI2
aaa(lp4597
I2
a(lp4598
I1
aI2
aaa(lp4599
I3
a(lp4600
I1
aI2
aaa(lp4601
I4
a(lp4602
I1
aI3
aaa(lp4603
I5
a(lp4604
I1
aI3
aaa(lp4605
I6
a(lp4606
I1
aI3
aaa(lp4607
I7
a(lp4608
I1
aI3
aaa(lp4609
I0
a(lp4610
I1
aI2
aaa(lp4611
I1
a(lp4612
I1
aI2
aaa(lp4613
I2
a(lp4614
I1
aI2
aaa(lp4615
I3
a(lp4616
I1
aI2
aaa(lp4617
I4
a(lp4618
I1
aI3
aaa(lp4619
I5
a(lp4620
I1
aI3
aaa(lp4621
I6
a(lp4622
I1
aI3
aaa(lp4623
I7
a(lp4624
I1
aI3
aaa(lp4625
I0
a(lp4626
I1
aI2
aaa(lp4627
I1
a(lp4628
I1
aI2
aaa(lp4629
I2
a(lp4630
I1
aI2
aaa(lp4631
I3
a(lp4632
I1
aI2
aaa(lp4633
I4
a(lp4634
I1
aI3
aaa(lp4635
I5
a(lp4636
I1
aI3
aaa(lp4637
I6
a(lp4638
I1
aI3
aaa(lp4639
I7
a(lp4640
I1
aI3
aaaa(lp4641
(lp4642
I0
a(lp4643
I1
aI2
aaa(lp4644
I1
a(lp4645
I1
aI2
aaa(lp4646
I2
a(lp4647
I1
aI2
aaa(lp4648
I3
a(lp4649
I1
aI2
aaa(lp4650
I4
a(lp4651
I1
aI3
aaa(lp4652
I5
a(lp4653
I1
aI3
aaa(lp4654
I6
a(lp4655
I1
aI3
aaa(lp4656
I7
a(lp4657
I1
aI3
aaa(lp4658
I0
a(lp4659
I1
aI2
aaa(lp4660
I1
a(lp4661
I1
aI2
aaa(lp4662
I2
a(lp4663
I1
aI2
aaa(lp4664
I3
a(lp4665
I1
aI2
aaa(lp4666
I4
a(lp4667
I1
aI3
aaa(lp4668
I5
a(lp4669
I1
aI3
aaa(lp4670
I6
a(lp4671
I1
aI3
aaa(lp4672
I7
a(lp4673
I1
aI3
aaa(lp4674
I0
a(lp4675
I1
aI2
aaa(lp4676
I1
a(lp4677
I1
aI2
aaa(lp4678
I2
a(lp4679
I1
aI2
aaa(lp4680
I3
a(lp4681
I1
aI2
aaa(lp4682
I4
a(lp4683
I1
aI3
aaa(lp4684
I5
a(lp4685
I1
aI3
aaa(lp4686
I6
a(lp4687
I1
aI3
aaa(lp4688
I7
a(lp4689
I1
aI3
aaa(lp4690
I0
a(lp4691
I1
aI2
aaa(lp4692
I1
a(lp4693
I1
aI2
aaa(lp4694
I2
a(lp4695
I1
aI2
aaa(lp4696
I3
a(lp4697
I1
aI2
aaa(lp4698
I4
a(lp4699
I1
aI3
aaa(lp4700
I5
a(lp4701
I1
aI3
aaa(lp4702
I6
a(lp4703
I1
aI3
aaa(lp4704
I7
a(lp4705
I1
aI3
aaa(lp4706
I0
a(lp4707
I1
aI2
aaa(lp4708
I1
a(lp4709
I1
aI2
aaa(lp4710
I2
a(lp4711
I1
aI2
aaa(lp4712
I3
a(lp4713
I1
aI2
aaa(lp4714
I4
a(lp4715
I1
aI3
aaa(lp4716
I5
a(lp4717
I1
aI3
aaa(lp4718
I6
a(lp4719
I1
aI3
aaa(lp4720
I7
a(lp4721
I1
aI3
aaa(lp4722
I0
a(lp4723
I1
aI2
aaa(lp4724
I1
a(lp4725
I2
aI1
aaa(lp4726
I2
a(lp4727
I1
aI2
aaa(lp4728
I3
a(lp4729
I1
aI2
aaa(lp4730
I4
a(lp4731
I1
aI3
aaa(lp4732
I5
a(lp4733
I2
aI1
aI3
aaa(lp4734
I6
a(lp4735
I1
aI3
aaa(lp4736
I7
a(lp4737
I1
aI3
aaa(lp4738
I0
a(lp4739
I1
aI2
aaa(lp4740
I1
a(lp4741
I1
aI2
aaa(lp4742
I2
a(lp4743
I1
aI2
aaa(lp4744
I3
a(lp4745
I1
aI2
aaa(lp4746
I4
a(lp4747
I1
aI3
aaa(lp4748
I5
a(lp4749
I1
aI3
aaa(lp4750
I6
a(lp4751
I1
aI3
aaa(lp4752
I7
a(lp4753
I1
aI3
aaa(lp4754
I0
a(lp4755
I3
aI1
aI2
aaa(lp4756
I1
a(lp4757
I1
aI2
aaa(lp4758
I2
a(lp4759
I1
aI2
aaa(lp4760
I3
a(lp4761
I1
aI2
aaa(lp4762
I4
a(lp4763
I1
aI3
aaa(lp4764
I5
a(lp4765
I1
aI3
aaa(lp4766
I6
a(lp4767
I1
aI3
aaa(lp4768
I7
a(lp4769
I1
aI3
aaa(lp4770
I0
a(lp4771
I1
aI2
aaa(lp4772
I1
a(lp4773
I1
aI2
aaa(lp4774
I2
a(lp4775
I1
aI2
aaa(lp4776
I3
a(lp4777
I1
aI2
aaa(lp4778
I4
a(lp4779
I1
aI3
aaa(lp4780
I5
a(lp4781
I1
aI3
aaa(lp4782
I6
a(lp4783
I1
aI3
aaa(lp4784
I7
a(lp4785
I1
aI3
aaaa(lp4786
(lp4787
I0
a(lp4788
I1
aI2
aaa(lp4789
I1
a(lp4790
I1
aI2
aaa(lp4791
I2
a(lp4792
I1
aI2
aaa(lp4793
I3
a(lp4794
I1
aI2
aaa(lp4795
I4
a(lp4796
I1
aI3
aaa(lp4797
I5
a(lp4798
I1
aI3
aaa(lp4799
I6
a(lp4800
I1
aI3
aaa(lp4801
I7
a(lp4802
I1
aI3
aaa(lp4803
I0
a(lp4804
I1
aI2
aaa(lp4805
I1
a(lp4806
I1
aI2
aaa(lp4807
I2
a(lp4808
I1
aI2
aaa(lp4809
I3
a(lp4810
I1
aI2
aaa(lp4811
I4
a(lp4812
I1
aI3
aaa(lp4813
I5
a(lp4814
I1
aI3
aaa(lp4815
I6
a(lp4816
I1
aI3
aaa(lp4817
I7
a(lp4818
I1
aI3
aaa(lp4819
I0
a(lp4820
I1
aI2
aaa(lp4821
I1
a(lp4822
I1
aI2
aaa(lp4823
I2
a(lp4824
I1
aI2
aaa(lp4825
I3
a(lp4826
I1
aI2
aaa(lp4827
I4
a(lp4828
I1
aI3
aaa(lp4829
I5
a(lp4830
I1
aI3
aaa(lp4831
I6
a(lp4832
I1
aI3
aaa(lp4833
I7
a(lp4834
I1
aI3
aaa(lp4835
I0
a(lp4836
I1
aI2
aaa(lp4837
I1
a(lp4838
I1
aI2
aaa(lp4839
I2
a(lp4840
I1
aI2
aaa(lp4841
I3
a(lp4842
I1
aI2
aaa(lp4843
I4
a(lp4844
I1
aI3
aaa(lp4845
I5
a(lp4846
I1
aI3
aaa(lp4847
I6
a(lp4848
I1
aI3
aaa(lp4849
I7
a(lp4850
I1
aI3
aaa(lp4851
I0
a(lp4852
I1
aI2
aaa(lp4853
I1
a(lp4854
I1
aI2
aaa(lp4855
I2
a(lp4856
I1
aI2
aaa(lp4857
I3
a(lp4858
I1
aI2
aaa(lp4859
I4
a(lp4860
I1
aI3
aaa(lp4861
I5
a(lp4862
I1
aI3
aaa(lp4863
I6
a(lp4864
I1
aI3
aaa(lp4865
I7
a(lp4866
I1
aI3
aaa(lp4867
I0
a(lp4868
I1
aI2
aaa(lp4869
I1
a(lp4870
I1
aI2
aaa(lp4871
I2
a(lp4872
I1
aI2
aaa(lp4873
I3
a(lp4874
I1
aI2
aaa(lp4875
I4
a(lp4876
I1
aI3
aaa(lp4877
I5
a(lp4878
I1
aI3
aaa(lp4879
I6
a(lp4880
I1
aI3
aaa(lp4881
I7
a(lp4882
I1
aI3
aaa(lp4883
I0
a(lp4884
I1
aI2
aaa(lp4885
I1
a(lp4886
I1
aI2
aaa(lp4887
I2
a(lp4888
I1
aI2
aaa(lp4889
I3
a(lp4890
I1
aI2
aaa(lp4891
I4
a(lp4892
I1
aI3
aaa(lp4893
I5
a(lp4894
I1
aI3
aaa(lp4895
I6
a(lp4896
I1
aI3
aaa(lp4897
I7
a(lp4898
I1
aI3
aaa(lp4899
I0
a(lp4900
I1
aI2
aaa(lp4901
I1
a(lp4902
I1
aI2
aaa(lp4903
I2
a(lp4904
I1
aI2
aaa(lp4905
I3
a(lp4906
I1
aI2
aaa(lp4907
I4
a(lp4908
I1
aI3
aaa(lp4909
I5
a(lp4910
I1
aI3
aaa(lp4911
I6
a(lp4912
I1
aI3
aaa(lp4913
I7
a(lp4914
I1
aI3
aaa(lp4915
I0
a(lp4916
I1
aI2
aaa(lp4917
I1
a(lp4918
I1
aI2
aaa(lp4919
I2
a(lp4920
I1
aI2
aaa(lp4921
I3
a(lp4922
I1
aI2
aaa(lp4923
I4
a(lp4924
I1
aI3
aaa(lp4925
I5
a(lp4926
I1
aI3
aaa(lp4927
I6
a(lp4928
I1
aI3
aaa(lp4929
I7
a(lp4930
I1
aI3
aaaa(lp4931
(lp4932
I0
a(lp4933
I1
aI2
aaa(lp4934
I1
a(lp4935
I1
aI2
aaa(lp4936
I2
a(lp4937
I1
aI2
aaa(lp4938
I3
a(lp4939
I1
aI2
aaa(lp4940
I4
a(lp4941
I1
aI3
aaa(lp4942
I5
a(lp4943
I1
aI3
aaa(lp4944
I6
a(lp4945
I1
aI3
aaa(lp4946
I7
a(lp4947
I2
aI1
aI3
aaa(lp4948
I0
a(lp4949
I1
aI2
aaa(lp4950
I1
a(lp4951
I1
aI2
aaa(lp4952
I2
a(lp4953
I1
aI2
aaa(lp4954
I3
a(lp4955
I1
aI2
aaa(lp4956
I4
a(lp4957
I1
aI3
aaa(lp4958
I5
a(lp4959
I1
aI3
aaa(lp4960
I6
a(lp4961
I1
aI3
aaa(lp4962
I7
a(lp4963
I1
aI3
aaa(lp4964
I0
a(lp4965
I1
aI2
aaa(lp4966
I1
a(lp4967
I1
aI2
aaa(lp4968
I2
a(lp4969
I3
aI1
aI2
aaa(lp4970
I3
a(lp4971
I1
aI2
aaa(lp4972
I4
a(lp4973
I1
aI3
aaa(lp4974
I5
a(lp4975
I1
aI3
aaa(lp4976
I6
a(lp4977
I1
aI3
aaa(lp4978
I7
a(lp4979
I1
aI3
aaa(lp4980
I0
a(lp4981
I1
aI2
aaa(lp4982
I1
a(lp4983
I1
aI2
aaa(lp4984
I2
a(lp4985
I1
aI2
aaa(lp4986
I3
a(lp4987
I1
aI2
aaa(lp4988
I4
a(lp4989
I1
aI3
aaa(lp4990
I5
a(lp4991
I1
aI3
aaa(lp4992
I6
a(lp4993
I1
aI3
aaa(lp4994
I7
a(lp4995
I1
aI3
aaa(lp4996
I0
a(lp4997
I1
aI2
aaa(lp4998
I1
a(lp4999
I1
aI2
aaa(lp5000
I2
a(lp5001
I1
aI2
aaa(lp5002
I3
a(lp5003
I1
aI2
aaa(lp5004
I4
a(lp5005
I1
aI3
aaa(lp5006
I5
a(lp5007
I1
aI3
aaa(lp5008
I6
a(lp5009
I1
aI3
aaa(lp5010
I7
a(lp5011
I1
aI3
aaa(lp5012
I0
a(lp5013
I1
aI2
aaa(lp5014
I1
a(lp5015
I1
aI2
aaa(lp5016
I2
a(lp5017
I1
aI2
aaa(lp5018
I3
a(lp5019
I1
aI2
aaa(lp5020
I4
a(lp5021
I1
aI3
aaa(lp5022
I5
a(lp5023
I1
aI3
aaa(lp5024
I6
a(lp5025
I1
aI3
aaa(lp5026
I7
a(lp5027
I1
aI3
aaa(lp5028
I0
a(lp5029
I1
aI2
aaa(lp5030
I1
a(lp5031
I1
aI2
aaa(lp5032
I2
a(lp5033
I1
aI2
aaa(lp5034
I3
a(lp5035
I1
aI2
aaa(lp5036
I4
a(lp5037
I1
aI3
aaa(lp5038
I5
a(lp5039
I1
aI3
aaa(lp5040
I6
a(lp5041
I1
aI3
aaa(lp5042
I7
a(lp5043
I1
aI3
aaa(lp5044
I0
a(lp5045
I1
aI2
aaa(lp5046
I1
a(lp5047
I1
aI2
aaa(lp5048
I2
a(lp5049
I1
aI2
aaa(lp5050
I3
a(lp5051
I1
aI2
aaa(lp5052
I4
a(lp5053
I1
aI3
aaa(lp5054
I5
a(lp5055
I1
aI3
aaa(lp5056
I6
a(lp5057
I1
aI3
aaa(lp5058
I7
a(lp5059
I1
aI3
aaa(lp5060
I0
a(lp5061
I1
aI2
aaa(lp5062
I1
a(lp5063
I1
aI2
aaa(lp5064
I2
a(lp5065
I1
aI2
aaa(lp5066
I3
a(lp5067
I1
aI2
aaa(lp5068
I4
a(lp5069
I1
aI3
aaa(lp5070
I5
a(lp5071
I1
aI3
aaa(lp5072
I6
a(lp5073
I1
aI3
aaa(lp5074
I7
a(lp5075
I1
aI3
aaaa(lp5076
(lp5077
I0
a(lp5078
I1
aI2
aaa(lp5079
I1
a(lp5080
I1
aI2
aaa(lp5081
I2
a(lp5082
I1
aI2
aaa(lp5083
I3
a(lp5084
I1
aI2
aaa(lp5085
I4
a(lp5086
I1
aI3
aaa(lp5087
I5
a(lp5088
I1
aI3
aaa(lp5089
I6
a(lp5090
I1
aI3
aaa(lp5091
I7
a(lp5092
I1
aI3
aaa(lp5093
I0
a(lp5094
I1
aI2
aaa(lp5095
I1
a(lp5096
I1
aI2
aaa(lp5097
I2
a(lp5098
I1
aI2
aaa(lp5099
I3
a(lp5100
I1
aI2
aaa(lp5101
I4
a(lp5102
I1
aI3
aaa(lp5103
I5
a(lp5104
I1
aI3
aaa(lp5105
I6
a(lp5106
I1
aI3
aaa(lp5107
I7
a(lp5108
I1
aI3
aaa(lp5109
I0
a(lp5110
I1
aI2
aaa(lp5111
I1
a(lp5112
I1
aI2
aaa(lp5113
I2
a(lp5114
I1
aI2
aaa(lp5115
I3
a(lp5116
I1
aI2
aaa(lp5117
I4
a(lp5118
I1
aI3
aaa(lp5119
I5
a(lp5120
I1
aI3
aaa(lp5121
I6
a(lp5122
I1
aI3
aaa(lp5123
I7
a(lp5124
I1
aI3
aaa(lp5125
I0
a(lp5126
I1
aI2
aaa(lp5127
I1
a(lp5128
I1
aI2
aaa(lp5129
I2
a(lp5130
I1
aI2
aaa(lp5131
I3
a(lp5132
I1
aI2
aaa(lp5133
I4
a(lp5134
I1
aI3
aaa(lp5135
I5
a(lp5136
I1
aI3
aaa(lp5137
I6
a(lp5138
I1
aI3
aaa(lp5139
I7
a(lp5140
I1
aI3
aaa(lp5141
I0
a(lp5142
I1
aI2
aaa(lp5143
I1
a(lp5144
I1
aI2
aaa(lp5145
I2
a(lp5146
I1
aI2
aaa(lp5147
I3
a(lp5148
I1
aI2
aaa(lp5149
I4
a(lp5150
I1
aI3
aaa(lp5151
I5
a(lp5152
I1
aI3
aaa(lp5153
I6
a(lp5154
I1
aI3
aaa(lp5155
I7
a(lp5156
I1
aI3
aaa(lp5157
I0
a(lp5158
I1
aI2
aaa(lp5159
I1
a(lp5160
I1
aI2
aaa(lp5161
I2
a(lp5162
I1
aI2
aaa(lp5163
I3
a(lp5164
I1
aI2
aaa(lp5165
I4
a(lp5166
I1
aI3
aaa(lp5167
I5
a(lp5168
I1
aI3
aaa(lp5169
I6
a(lp5170
I1
aI3
aaa(lp5171
I7
a(lp5172
I1
aI3
aaa(lp5173
I0
a(lp5174
I1
aI2
aaa(lp5175
I1
a(lp5176
I1
aI2
aaa(lp5177
I2
a(lp5178
I1
aI2
aaa(lp5179
I3
a(lp5180
I1
aI2
aaa(lp5181
I4
a(lp5182
I1
aI3
aaa(lp5183
I5
a(lp5184
I1
aI3
aaa(lp5185
I6
a(lp5186
I1
aI3
aaa(lp5187
I7
a(lp5188
I1
aI3
aaa(lp5189
I0
a(lp5190
I1
aI2
aaa(lp5191
I1
a(lp5192
I1
aI2
aaa(lp5193
I2
a(lp5194
I1
aI2
aaa(lp5195
I3
a(lp5196
I1
aI2
aaa(lp5197
I4
a(lp5198
I1
aI3
aaa(lp5199
I5
a(lp5200
I1
aI3
aaa(lp5201
I6
a(lp5202
I1
aI3
aaa(lp5203
I7
a(lp5204
I1
aI3
aaa(lp5205
I0
a(lp5206
I1
aI2
aaa(lp5207
I1
a(lp5208
I1
aI2
aaa(lp5209
I2
a(lp5210
I1
aI2
aaa(lp5211
I3
a(lp5212
I1
aI2
aaa(lp5213
I4
a(lp5214
I1
aI3
aaa(lp5215
I5
a(lp5216
I1
aI3
aaa(lp5217
I6
a(lp5218
I1
aI3
aaa(lp5219
I7
a(lp5220
I1
aI3
aaaa(lp5221
(lp5222
I0
a(lp5223
I1
aI2
aaa(lp5224
I1
a(lp5225
I1
aI2
aaa(lp5226
I2
a(lp5227
I1
aI2
aaa(lp5228
I3
a(lp5229
I1
aI2
aaa(lp5230
I4
a(lp5231
I1
aI3
aaa(lp5232
I5
a(lp5233
I1
aI3
aaa(lp5234
I6
a(lp5235
I1
aI3
aaa(lp5236
I7
a(lp5237
I1
aI3
aaa(lp5238
I0
a(lp5239
I1
aI2
aaa(lp5240
I1
a(lp5241
I1
aI2
aaa(lp5242
I2
a(lp5243
I1
aI2
aaa(lp5244
I3
a(lp5245
I1
aI2
aaa(lp5246
I4
a(lp5247
I1
aI3
aaa(lp5248
I5
a(lp5249
I1
aI3
aaa(lp5250
I6
a(lp5251
I1
aI3
aaa(lp5252
I7
a(lp5253
I1
aI3
aaa(lp5254
I0
a(lp5255
I1
aI2
aaa(lp5256
I1
a(lp5257
I1
aI2
aaa(lp5258
I2
a(lp5259
I1
aI2
aaa(lp5260
I3
a(lp5261
I1
aI2
aaa(lp5262
I4
a(lp5263
I1
aI3
aaa(lp5264
I5
a(lp5265
I1
aI3
aaa(lp5266
I6
a(lp5267
I1
aI3
aaa(lp5268
I7
a(lp5269
I1
aI3
aaa(lp5270
I0
a(lp5271
I1
aI2
aaa(lp5272
I1
a(lp5273
I1
aI2
aaa(lp5274
I2
a(lp5275
I1
aI2
aaa(lp5276
I3
a(lp5277
I1
aI2
aaa(lp5278
I4
a(lp5279
I1
aI3
aaa(lp5280
I5
a(lp5281
I1
aI3
aaa(lp5282
I6
a(lp5283
I1
aI3
aaa(lp5284
I7
a(lp5285
I1
aI3
aaa(lp5286
I0
a(lp5287
I1
aI2
aaa(lp5288
I1
a(lp5289
I1
aI2
aaa(lp5290
I2
a(lp5291
I1
aI2
aaa(lp5292
I3
a(lp5293
I1
aI2
aaa(lp5294
I4
a(lp5295
I1
aI3
aaa(lp5296
I5
a(lp5297
I1
aI3
aaa(lp5298
I6
a(lp5299
I1
aI3
aaa(lp5300
I7
a(lp5301
I1
aI3
aaa(lp5302
I0
a(lp5303
I1
aI2
aaa(lp5304
I1
a(lp5305
I1
aI2
aaa(lp5306
I2
a(lp5307
I1
aI2
aaa(lp5308
I3
a(lp5309
I1
aI2
aaa(lp5310
I4
a(lp5311
I1
aI3
aaa(lp5312
I5
a(lp5313
I1
aI3
aaa(lp5314
I6
a(lp5315
I1
aI3
aaa(lp5316
I7
a(lp5317
I1
aI3
aaa(lp5318
I0
a(lp5319
I1
aI2
aaa(lp5320
I1
a(lp5321
I1
aI2
aaa(lp5322
I2
a(lp5323
I1
aI2
aaa(lp5324
I3
a(lp5325
I1
aI2
aaa(lp5326
I4
a(lp5327
I1
aI3
aaa(lp5328
I5
a(lp5329
I1
aI3
aaa(lp5330
I6
a(lp5331
I1
aI3
aaa(lp5332
I7
a(lp5333
I1
aI3
aaa(lp5334
I0
a(lp5335
I1
aI2
aaa(lp5336
I1
a(lp5337
I1
aI2
aaa(lp5338
I2
a(lp5339
I1
aI2
aaa(lp5340
I3
a(lp5341
I1
aI2
aaa(lp5342
I4
a(lp5343
I1
aI3
aaa(lp5344
I5
a(lp5345
I1
aI3
aaa(lp5346
I6
a(lp5347
I1
aI3
aaa(lp5348
I7
a(lp5349
I1
aI3
aaa(lp5350
I0
a(lp5351
I1
aI2
aaa(lp5352
I1
a(lp5353
I1
aI2
aaa(lp5354
I2
a(lp5355
I1
aI2
aaa(lp5356
I3
a(lp5357
I1
aI2
aaa(lp5358
I4
a(lp5359
I1
aI3
aaa(lp5360
I5
a(lp5361
I1
aI3
aaa(lp5362
I6
a(lp5363
I1
aI3
aaa(lp5364
I7
a(lp5365
I1
aI3
aaaa(lp5366
(lp5367
I0
a(lp5368
I1
aI2
aaa(lp5369
I1
a(lp5370
I1
aI2
aaa(lp5371
I2
a(lp5372
I1
aI2
aaa(lp5373
I3
a(lp5374
I1
aI2
aaa(lp5375
I4
a(lp5376
I1
aI3
aaa(lp5377
I5
a(lp5378
I1
aI3
aaa(lp5379
I6
a(lp5380
I1
aI3
aaa(lp5381
I7
a(lp5382
I1
aI3
aaa(lp5383
I0
a(lp5384
I1
aI2
aaa(lp5385
I1
a(lp5386
I1
aI2
aaa(lp5387
I2
a(lp5388
I1
aI2
aaa(lp5389
I3
a(lp5390
I1
aI2
aaa(lp5391
I4
a(lp5392
I1
aI3
aaa(lp5393
I5
a(lp5394
I1
aI3
aaa(lp5395
I6
a(lp5396
I1
aI3
aaa(lp5397
I7
a(lp5398
I1
aI3
aaa(lp5399
I0
a(lp5400
I1
aI2
aaa(lp5401
I1
a(lp5402
I1
aI2
aaa(lp5403
I2
a(lp5404
I1
aI2
aaa(lp5405
I3
a(lp5406
I1
aI2
aaa(lp5407
I4
a(lp5408
I1
aI3
aaa(lp5409
I5
a(lp5410
I1
aI3
aaa(lp5411
I6
a(lp5412
I1
aI3
aaa(lp5413
I7
a(lp5414
I1
aI3
aaa(lp5415
I0
a(lp5416
I1
aI2
aaa(lp5417
I1
a(lp5418
I1
aI2
aaa(lp5419
I2
a(lp5420
I1
aI2
aaa(lp5421
I3
a(lp5422
I1
aI2
aaa(lp5423
I4
a(lp5424
I1
aI3
aaa(lp5425
I5
a(lp5426
I1
aI3
aaa(lp5427
I6
a(lp5428
I1
aI3
aaa(lp5429
I7
a(lp5430
I1
aI3
aaa(lp5431
I0
a(lp5432
I1
aI2
aaa(lp5433
I1
a(lp5434
I1
aI2
aaa(lp5435
I2
a(lp5436
I1
aI2
aaa(lp5437
I3
a(lp5438
I1
aI2
aaa(lp5439
I4
a(lp5440
I1
aI3
aaa(lp5441
I5
a(lp5442
I1
aI3
aaa(lp5443
I6
a(lp5444
I1
aI3
aaa(lp5445
I7
a(lp5446
I1
aI3
aaa(lp5447
I0
a(lp5448
I1
aI2
aaa(lp5449
I1
a(lp5450
I1
aI2
aaa(lp5451
I2
a(lp5452
I1
aI2
aaa(lp5453
I3
a(lp5454
I1
aI2
aaa(lp5455
I4
a(lp5456
I1
aI3
aaa(lp5457
I5
a(lp5458
I1
aI3
aaa(lp5459
I6
a(lp5460
I1
aI3
aaa(lp5461
I7
a(lp5462
I1
aI3
aaa(lp5463
I0
a(lp5464
I1
aI2
aaa(lp5465
I1
a(lp5466
I1
aI2
aaa(lp5467
I2
a(lp5468
I1
aI2
aaa(lp5469
I3
a(lp5470
I1
aI2
aaa(lp5471
I4
a(lp5472
I1
aI3
aaa(lp5473
I5
a(lp5474
I1
aI3
aaa(lp5475
I6
a(lp5476
I1
aI3
aaa(lp5477
I7
a(lp5478
I1
aI3
aaa(lp5479
I0
a(lp5480
I1
aI2
aaa(lp5481
I1
a(lp5482
I1
aI2
aaa(lp5483
I2
a(lp5484
I1
aI2
aaa(lp5485
I3
a(lp5486
I1
aI2
aaa(lp5487
I4
a(lp5488
I1
aI3
aaa(lp5489
I5
a(lp5490
I1
aI3
aaa(lp5491
I6
a(lp5492
I1
aI3
aaa(lp5493
I7
a(lp5494
I1
aI3
aaa(lp5495
I0
a(lp5496
I1
aI2
aaa(lp5497
I1
a(lp5498
I1
aI2
aaa(lp5499
I2
a(lp5500
I1
aI2
aaa(lp5501
I3
a(lp5502
I1
aI2
aaa(lp5503
I4
a(lp5504
I1
aI3
aaa(lp5505
I5
a(lp5506
I1
aI3
aaa(lp5507
I6
a(lp5508
I1
aI3
aaa(lp5509
I7
a(lp5510
I1
aI3
aaaa(lp5511
(lp5512
I0
a(lp5513
I1
aI2
aaa(lp5514
I1
a(lp5515
I1
aI2
aaa(lp5516
I2
a(lp5517
I1
aI2
aaa(lp5518
I3
a(lp5519
I1
aI2
aaa(lp5520
I4
a(lp5521
I1
aI3
aaa(lp5522
I5
a(lp5523
I1
aI3
aaa(lp5524
I6
a(lp5525
I1
aI3
aaa(lp5526
I7
a(lp5527
I1
aI3
aaa(lp5528
I0
a(lp5529
I1
aI2
aaa(lp5530
I1
a(lp5531
I1
aI2
aaa(lp5532
I2
a(lp5533
I1
aI2
aaa(lp5534
I3
a(lp5535
I1
aI2
aaa(lp5536
I4
a(lp5537
I1
aI3
aaa(lp5538
I5
a(lp5539
I1
aI3
aaa(lp5540
I6
a(lp5541
I1
aI3
aaa(lp5542
I7
a(lp5543
I1
aI3
aaa(lp5544
I0
a(lp5545
I1
aI2
aaa(lp5546
I1
a(lp5547
I1
aI2
aaa(lp5548
I2
a(lp5549
I1
aI2
aaa(lp5550
I3
a(lp5551
I1
aI2
aaa(lp5552
I4
a(lp5553
I1
aI3
aaa(lp5554
I5
a(lp5555
I1
aI3
aaa(lp5556
I6
a(lp5557
I1
aI3
aaa(lp5558
I7
a(lp5559
I1
aI3
aaa(lp5560
I0
a(lp5561
I1
aI2
aaa(lp5562
I1
a(lp5563
I1
aI2
aaa(lp5564
I2
a(lp5565
I1
aI2
aaa(lp5566
I3
a(lp5567
I1
aI2
aaa(lp5568
I4
a(lp5569
I1
aI3
aaa(lp5570
I5
a(lp5571
I1
aI3
aaa(lp5572
I6
a(lp5573
I1
aI3
aaa(lp5574
I7
a(lp5575
I1
aI3
aaa(lp5576
I0
a(lp5577
I2
aI1
aaa(lp5578
I1
a(lp5579
I1
aI2
aaa(lp5580
I2
a(lp5581
I1
aI2
aaa(lp5582
I3
a(lp5583
I1
aI2
aaa(lp5584
I4
a(lp5585
I1
aI3
aaa(lp5586
I5
a(lp5587
I1
aI3
aaa(lp5588
I6
a(lp5589
I1
aI3
aaa(lp5590
I7
a(lp5591
I1
aI3
aaa(lp5592
I0
a(lp5593
I1
aI2
aaa(lp5594
I1
a(lp5595
I1
aI2
aaa(lp5596
I2
a(lp5597
I1
aI2
aaa(lp5598
I3
a(lp5599
I1
aI2
aaa(lp5600
I4
a(lp5601
I1
aI3
aaa(lp5602
I5
a(lp5603
I1
aI3
aaa(lp5604
I6
a(lp5605
I1
aI3
aaa(lp5606
I7
a(lp5607
I1
aI3
aaa(lp5608
I0
a(lp5609
I1
aI2
aaa(lp5610
I1
a(lp5611
I1
aI2
aaa(lp5612
I2
a(lp5613
I1
aI2
aaa(lp5614
I3
a(lp5615
I1
aI2
aaa(lp5616
I4
a(lp5617
I1
aI3
aaa(lp5618
I5
a(lp5619
I1
aI3
aaa(lp5620
I6
a(lp5621
I1
aI3
aaa(lp5622
I7
a(lp5623
I1
aI3
aaa(lp5624
I0
a(lp5625
I1
aI2
aaa(lp5626
I1
a(lp5627
I1
aI2
aaa(lp5628
I2
a(lp5629
I1
aI2
aaa(lp5630
I3
a(lp5631
I1
aI2
aaa(lp5632
I4
a(lp5633
I1
aI3
aaa(lp5634
I5
a(lp5635
I1
aI3
aaa(lp5636
I6
a(lp5637
I1
aI3
aaa(lp5638
I7
a(lp5639
I1
aI3
aaa(lp5640
I0
a(lp5641
I1
aI2
aaa(lp5642
I1
a(lp5643
I1
aI2
aaa(lp5644
I2
a(lp5645
I1
aI2
aaa(lp5646
I3
a(lp5647
I1
aI2
aaa(lp5648
I4
a(lp5649
I1
aI3
aaa(lp5650
I5
a(lp5651
I1
aI3
aaa(lp5652
I6
a(lp5653
I1
aI3
aaa(lp5654
I7
a(lp5655
I1
aI3
aaaa(lp5656
(lp5657
I0
a(lp5658
I1
aI2
aaa(lp5659
I1
a(lp5660
I1
aI2
aaa(lp5661
I2
a(lp5662
I1
aI2
aaa(lp5663
I3
a(lp5664
I1
aI2
aaa(lp5665
I4
a(lp5666
I1
aI3
aaa(lp5667
I5
a(lp5668
I1
aI3
aaa(lp5669
I6
a(lp5670
I1
aI3
aaa(lp5671
I7
a(lp5672
I1
aI3
aaa(lp5673
I0
a(lp5674
I1
aI2
aaa(lp5675
I1
a(lp5676
I1
aI2
aaa(lp5677
I2
a(lp5678
I1
aI2
aaa(lp5679
I3
a(lp5680
I1
aI2
aaa(lp5681
I4
a(lp5682
I1
aI3
aaa(lp5683
I5
a(lp5684
I1
aI3
aaa(lp5685
I6
a(lp5686
I1
aI3
aaa(lp5687
I7
a(lp5688
I1
aI3
aaa(lp5689
I0
a(lp5690
I1
aI2
aaa(lp5691
I1
a(lp5692
I1
aI2
aaa(lp5693
I2
a(lp5694
I1
aI2
aaa(lp5695
I3
a(lp5696
I1
aI2
aaa(lp5697
I4
a(lp5698
I1
aI3
aaa(lp5699
I5
a(lp5700
I1
aI3
aaa(lp5701
I6
a(lp5702
I1
aI3
aaa(lp5703
I7
a(lp5704
I1
aI3
aaa(lp5705
I0
a(lp5706
I1
aI2
aaa(lp5707
I1
a(lp5708
I1
aI2
aaa(lp5709
I2
a(lp5710
I1
aI2
aaa(lp5711
I3
a(lp5712
I1
aI2
aaa(lp5713
I4
a(lp5714
I1
aI3
aaa(lp5715
I5
a(lp5716
I1
aI3
aaa(lp5717
I6
a(lp5718
I1
aI3
aaa(lp5719
I7
a(lp5720
I1
aI3
aaa(lp5721
I0
a(lp5722
I1
aI2
aaa(lp5723
I1
a(lp5724
I1
aI2
aaa(lp5725
I2
a(lp5726
I1
aI2
aaa(lp5727
I3
a(lp5728
I1
aI2
aaa(lp5729
I4
a(lp5730
I1
aI3
aaa(lp5731
I5
a(lp5732
I1
aI3
aaa(lp5733
I6
a(lp5734
I1
aI3
aaa(lp5735
I7
a(lp5736
I1
aI3
aaa(lp5737
I0
a(lp5738
I1
aI2
aaa(lp5739
I1
a(lp5740
I1
aI2
aaa(lp5741
I2
a(lp5742
I1
aI2
aaa(lp5743
I3
a(lp5744
I1
aI2
aaa(lp5745
I4
a(lp5746
I1
aI3
aaa(lp5747
I5
a(lp5748
I1
aI3
aaa(lp5749
I6
a(lp5750
I1
aI3
aaa(lp5751
I7
a(lp5752
I1
aI3
aaa(lp5753
I0
a(lp5754
I1
aI2
aaa(lp5755
I1
a(lp5756
I1
aI2
aaa(lp5757
I2
a(lp5758
I1
aI2
aaa(lp5759
I3
a(lp5760
I1
aI2
aaa(lp5761
I4
a(lp5762
I1
aI3
aaa(lp5763
I5
a(lp5764
I1
aI3
aaa(lp5765
I6
a(lp5766
I1
aI3
aaa(lp5767
I7
a(lp5768
I1
aI3
aaa(lp5769
I0
a(lp5770
I1
aI2
aaa(lp5771
I1
a(lp5772
I1
aI2
aaa(lp5773
I2
a(lp5774
I1
aI2
aaa(lp5775
I3
a(lp5776
I1
aI2
aaa(lp5777
I4
a(lp5778
I1
aI3
aaa(lp5779
I5
a(lp5780
I1
aI3
aaa(lp5781
I6
a(lp5782
I1
aI3
aaa(lp5783
I7
a(lp5784
I1
aI3
aaa(lp5785
I0
a(lp5786
I1
aI2
aaa(lp5787
I1
a(lp5788
I1
aI2
aaa(lp5789
I2
a(lp5790
I1
aI2
aaa(lp5791
I3
a(lp5792
I1
aI2
aaa(lp5793
I4
a(lp5794
I1
aI3
aaa(lp5795
I5
a(lp5796
I1
aI3
aaa(lp5797
I6
a(lp5798
I1
aI3
aaa(lp5799
I7
a(lp5800
I1
aI3
aaaa(lp5801
(lp5802
I0
a(lp5803
I1
aI2
aaa(lp5804
I1
a(lp5805
I1
aI2
aaa(lp5806
I2
a(lp5807
I1
aI2
aaa(lp5808
I3
a(lp5809
I1
aI2
aaa(lp5810
I4
a(lp5811
I1
aI3
aaa(lp5812
I5
a(lp5813
I1
aI3
aaa(lp5814
I6
a(lp5815
I3
aI1
aaa(lp5816
I7
a(lp5817
I1
aI3
aaa(lp5818
I0
a(lp5819
I1
aI2
aaa(lp5820
I1
a(lp5821
I1
aI2
aaa(lp5822
I2
a(lp5823
I1
aI2
aaa(lp5824
I3
a(lp5825
I1
aI2
aaa(lp5826
I4
a(lp5827
I1
aI3
aaa(lp5828
I5
a(lp5829
I1
aI3
aaa(lp5830
I6
a(lp5831
I1
aI3
aaa(lp5832
I7
a(lp5833
I1
aI3
aaa(lp5834
I0
a(lp5835
I1
aI2
aaa(lp5836
I1
a(lp5837
I1
aI2
aaa(lp5838
I2
a(lp5839
I1
aI2
aaa(lp5840
I3
a(lp5841
I1
aI2
aaa(lp5842
I4
a(lp5843
I1
aI3
aaa(lp5844
I5
a(lp5845
I1
aI3
aaa(lp5846
I6
a(lp5847
I1
aI3
aaa(lp5848
I7
a(lp5849
I1
aI3
aaa(lp5850
I0
a(lp5851
I1
aI2
aaa(lp5852
I1
a(lp5853
I1
aI2
aaa(lp5854
I2
a(lp5855
I1
aI2
aaa(lp5856
I3
a(lp5857
I1
aI2
aaa(lp5858
I4
a(lp5859
I1
aI3
aaa(lp5860
I5
a(lp5861
I1
aI3
aaa(lp5862
I6
a(lp5863
I1
aI3
aaa(lp5864
I7
a(lp5865
I1
aI3
aaa(lp5866
I0
a(lp5867
I1
aI2
aaa(lp5868
I1
a(lp5869
I1
aI2
aaa(lp5870
I2
a(lp5871
I1
aI2
aaa(lp5872
I3
a(lp5873
I1
aI2
aaa(lp5874
I4
a(lp5875
I1
aI3
aaa(lp5876
I5
a(lp5877
I1
aI3
aaa(lp5878
I6
a(lp5879
I1
aI3
aaa(lp5880
I7
a(lp5881
I1
aI3
aaa(lp5882
I0
a(lp5883
I1
aI2
aaa(lp5884
I1
a(lp5885
I1
aI2
aaa(lp5886
I2
a(lp5887
I1
aI2
aaa(lp5888
I3
a(lp5889
I1
aI2
aaa(lp5890
I4
a(lp5891
I1
aI3
aaa(lp5892
I5
a(lp5893
I1
aI3
aaa(lp5894
I6
a(lp5895
I1
aI3
aaa(lp5896
I7
a(lp5897
I1
aI3
aaa(lp5898
I0
a(lp5899
I1
aI2
aaa(lp5900
I1
a(lp5901
I1
aI2
aaa(lp5902
I2
a(lp5903
I1
aI2
aaa(lp5904
I3
a(lp5905
I1
aI2
aaa(lp5906
I4
a(lp5907
I1
aI3
aaa(lp5908
I5
a(lp5909
I1
aI3
aaa(lp5910
I6
a(lp5911
I1
aI3
aaa(lp5912
I7
a(lp5913
I1
aI3
aaa(lp5914
I0
a(lp5915
I1
aI2
aaa(lp5916
I1
a(lp5917
I1
aI2
aaa(lp5918
I2
a(lp5919
I1
aI2
aaa(lp5920
I3
a(lp5921
I1
aI2
aaa(lp5922
I4
a(lp5923
I1
aI3
aaa(lp5924
I5
a(lp5925
I1
aI3
aaa(lp5926
I6
a(lp5927
I1
aI3
aaa(lp5928
I7
a(lp5929
I1
aI3
aaa(lp5930
I0
a(lp5931
I1
aI2
aaa(lp5932
I1
a(lp5933
I1
aI2
aaa(lp5934
I2
a(lp5935
I1
aI2
aaa(lp5936
I3
a(lp5937
I1
aI2
aaa(lp5938
I4
a(lp5939
I1
aI3
aaa(lp5940
I5
a(lp5941
I1
aI3
aaa(lp5942
I6
a(lp5943
I1
aI3
aaa(lp5944
I7
a(lp5945
I1
aI3
aaaa(lp5946
(lp5947
I0
a(lp5948
I1
aI2
aaa(lp5949
I1
a(lp5950
I1
aI2
aaa(lp5951
I2
a(lp5952
I1
aI2
aaa(lp5953
I3
a(lp5954
I1
aI2
aaa(lp5955
I4
a(lp5956
I1
aI3
aaa(lp5957
I5
a(lp5958
I1
aI3
aaa(lp5959
I6
a(lp5960
I1
aI3
aaa(lp5961
I7
a(lp5962
I1
aI3
aaa(lp5963
I0
a(lp5964
I1
aI2
aaa(lp5965
I1
a(lp5966
I1
aI2
aaa(lp5967
I2
a(lp5968
I1
aI2
aaa(lp5969
I3
a(lp5970
I1
aI2
aaa(lp5971
I4
a(lp5972
I1
aI3
aaa(lp5973
I5
a(lp5974
I1
aI3
aaa(lp5975
I6
a(lp5976
I1
aI3
aaa(lp5977
I7
a(lp5978
I1
aI3
aaa(lp5979
I0
a(lp5980
I1
aI2
aaa(lp5981
I1
a(lp5982
I1
aI2
aaa(lp5983
I2
a(lp5984
I1
aI2
aaa(lp5985
I3
a(lp5986
I1
aI2
aaa(lp5987
I4
a(lp5988
I1
aI3
aaa(lp5989
I5
a(lp5990
I1
aI3
aaa(lp5991
I6
a(lp5992
I1
aI3
aaa(lp5993
I7
a(lp5994
I1
aI3
aaa(lp5995
I0
a(lp5996
I1
aI2
aaa(lp5997
I1
a(lp5998
I1
aI2
aaa(lp5999
I2
a(lp6000
I1
aI2
aaa(lp6001
I3
a(lp6002
I1
aI2
aaa(lp6003
I4
a(lp6004
I1
aI3
aaa(lp6005
I5
a(lp6006
I1
aI3
aaa(lp6007
I6
a(lp6008
I1
aI3
aaa(lp6009
I7
a(lp6010
I1
aI3
aaa(lp6011
I0
a(lp6012
I1
aI2
aaa(lp6013
I1
a(lp6014
I1
aI2
aaa(lp6015
I2
a(lp6016
I1
aI2
aaa(lp6017
I3
a(lp6018
I3
aI1
aI2
aaa(lp6019
I4
a(lp6020
I1
aI3
aaa(lp6021
I5
a(lp6022
I1
aI3
aaa(lp6023
I6
a(lp6024
I1
aI3
aaa(lp6025
I7
a(lp6026
I1
aI3
aaa(lp6027
I0
a(lp6028
I1
aI2
aaa(lp6029
I1
a(lp6030
I1
aI2
aaa(lp6031
I2
a(lp6032
I1
aI2
aaa(lp6033
I3
a(lp6034
I1
aI2
aaa(lp6035
I4
a(lp6036
I1
aI3
aaa(lp6037
I5
a(lp6038
I1
aI3
aaa(lp6039
I6
a(lp6040
I1
aI3
aaa(lp6041
I7
a(lp6042
I1
aI3
aaa(lp6043
I0
a(lp6044
I1
aI2
aaa(lp6045
I1
a(lp6046
I1
aI2
aaa(lp6047
I2
a(lp6048
I1
aI2
aaa(lp6049
I3
a(lp6050
I1
aI2
aaa(lp6051
I4
a(lp6052
I1
aI3
aaa(lp6053
I5
a(lp6054
I1
aI3
aaa(lp6055
I6
a(lp6056
I1
aI3
aaa(lp6057
I7
a(lp6058
I1
aI3
aaa(lp6059
I0
a(lp6060
I1
aI2
aaa(lp6061
I1
a(lp6062
I1
aI2
aaa(lp6063
I2
a(lp6064
I1
aI2
aaa(lp6065
I3
a(lp6066
I1
aI2
aaa(lp6067
I4
a(lp6068
I1
aI3
aaa(lp6069
I5
a(lp6070
I1
aI3
aaa(lp6071
I6
a(lp6072
I3
aI1
aaa(lp6073
I7
a(lp6074
I1
aI3
aaa(lp6075
I0
a(lp6076
I1
aI2
aaa(lp6077
I1
a(lp6078
I1
aI2
aaa(lp6079
I2
a(lp6080
I1
aI2
aaa(lp6081
I3
a(lp6082
I1
aI2
aaa(lp6083
I4
a(lp6084
I1
aI3
aaa(lp6085
I5
a(lp6086
I1
aI3
aaa(lp6087
I6
a(lp6088
I1
aI3
aaa(lp6089
I7
a(lp6090
I1
aI3
aaaa(lp6091
(lp6092
I0
a(lp6093
I1
aI2
aaa(lp6094
I1
a(lp6095
I1
aI2
aaa(lp6096
I2
a(lp6097
I1
aI2
aaa(lp6098
I3
a(lp6099
I1
aI2
aaa(lp6100
I4
a(lp6101
I1
aI3
aaa(lp6102
I5
a(lp6103
I1
aI3
aaa(lp6104
I6
a(lp6105
I1
aI3
aaa(lp6106
I7
a(lp6107
I1
aI3
aaa(lp6108
I0
a(lp6109
I1
aI2
aaa(lp6110
I1
a(lp6111
I1
aI2
aaa(lp6112
I2
a(lp6113
I1
aI2
aaa(lp6114
I3
a(lp6115
I1
aI2
aaa(lp6116
I4
a(lp6117
I1
aI3
aaa(lp6118
I5
a(lp6119
I1
aI3
aaa(lp6120
I6
a(lp6121
I1
aI3
aaa(lp6122
I7
a(lp6123
I1
aI3
aaa(lp6124
I0
a(lp6125
I1
aI2
aaa(lp6126
I1
a(lp6127
I1
aI2
aaa(lp6128
I2
a(lp6129
I1
aI2
aaa(lp6130
I3
a(lp6131
I1
aI2
aaa(lp6132
I4
a(lp6133
I1
aI3
aaa(lp6134
I5
a(lp6135
I1
aI3
aaa(lp6136
I6
a(lp6137
I1
aI3
aaa(lp6138
I7
a(lp6139
I1
aI3
aaa(lp6140
I0
a(lp6141
I1
aI2
aaa(lp6142
I1
a(lp6143
I1
aI2
aaa(lp6144
I2
a(lp6145
I1
aI2
aaa(lp6146
I3
a(lp6147
I1
aI2
aaa(lp6148
I4
a(lp6149
I1
aI3
aaa(lp6150
I5
a(lp6151
I1
aI3
aaa(lp6152
I6
a(lp6153
I1
aI3
aaa(lp6154
I7
a(lp6155
I1
aI3
aaa(lp6156
I0
a(lp6157
I1
aI2
aaa(lp6158
I1
a(lp6159
I1
aI2
aaa(lp6160
I2
a(lp6161
I1
aI2
aaa(lp6162
I3
a(lp6163
I1
aI2
aaa(lp6164
I4
a(lp6165
I1
aI3
aaa(lp6166
I5
a(lp6167
I1
aI3
aaa(lp6168
I6
a(lp6169
I1
aI3
aaa(lp6170
I7
a(lp6171
I1
aI3
aaa(lp6172
I0
a(lp6173
I1
aI2
aaa(lp6174
I1
a(lp6175
I1
aI2
aaa(lp6176
I2
a(lp6177
I1
aI2
aaa(lp6178
I3
a(lp6179
I1
aI2
aaa(lp6180
I4
a(lp6181
I1
aI3
aaa(lp6182
I5
a(lp6183
I1
aI3
aaa(lp6184
I6
a(lp6185
I1
aI3
aaa(lp6186
I7
a(lp6187
I1
aI3
aaa(lp6188
I0
a(lp6189
I1
aI2
aaa(lp6190
I1
a(lp6191
I1
aI2
aaa(lp6192
I2
a(lp6193
I1
aI2
aaa(lp6194
I3
a(lp6195
I1
aI2
aaa(lp6196
I4
a(lp6197
I1
aI3
aaa(lp6198
I5
a(lp6199
I1
aI3
aaa(lp6200
I6
a(lp6201
I1
aI3
aaa(lp6202
I7
a(lp6203
I1
aI3
aaa(lp6204
I0
a(lp6205
I3
aI1
aI2
aaa(lp6206
I1
a(lp6207
I1
aI2
aaa(lp6208
I2
a(lp6209
I1
aI2
aaa(lp6210
I3
a(lp6211
I1
aI2
aaa(lp6212
I4
a(lp6213
I1
aI3
aaa(lp6214
I5
a(lp6215
I1
aI3
aaa(lp6216
I6
a(lp6217
I1
aI3
aaa(lp6218
I7
a(lp6219
I1
aI3
aaa(lp6220
I0
a(lp6221
I1
aI2
aaa(lp6222
I1
a(lp6223
I1
aI2
aaa(lp6224
I2
a(lp6225
I1
aI2
aaa(lp6226
I3
a(lp6227
I1
aI2
aaa(lp6228
I4
a(lp6229
I1
aI3
aaa(lp6230
I5
a(lp6231
I1
aI3
aaa(lp6232
I6
a(lp6233
I1
aI3
aaa(lp6234
I7
a(lp6235
I1
aI3
aaaa(lp6236
(lp6237
I0
a(lp6238
I1
aI2
aaa(lp6239
I1
a(lp6240
I1
aI2
aaa(lp6241
I2
a(lp6242
I1
aI2
aaa(lp6243
I3
a(lp6244
I1
aI2
aaa(lp6245
I4
a(lp6246
I1
aI3
aaa(lp6247
I5
a(lp6248
I1
aI3
aaa(lp6249
I6
a(lp6250
I1
aI3
aaa(lp6251
I7
a(lp6252
I1
aI3
aaa(lp6253
I0
a(lp6254
I1
aI2
aaa(lp6255
I1
a(lp6256
I1
aI2
aaa(lp6257
I2
a(lp6258
I1
aI2
aaa(lp6259
I3
a(lp6260
I1
aI2
aaa(lp6261
I4
a(lp6262
I1
aI3
aaa(lp6263
I5
a(lp6264
I1
aI3
aaa(lp6265
I6
a(lp6266
I1
aI3
aaa(lp6267
I7
a(lp6268
I1
aI3
aaa(lp6269
I0
a(lp6270
I1
aI2
aaa(lp6271
I1
a(lp6272
I1
aI2
aaa(lp6273
I2
a(lp6274
I1
aI2
aaa(lp6275
I3
a(lp6276
I1
aI2
aaa(lp6277
I4
a(lp6278
I1
aI3
aaa(lp6279
I5
a(lp6280
I1
aI3
aaa(lp6281
I6
a(lp6282
I1
aI3
aaa(lp6283
I7
a(lp6284
I1
aI3
aaa(lp6285
I0
a(lp6286
I1
aI2
aaa(lp6287
I1
a(lp6288
I1
aI2
aaa(lp6289
I2
a(lp6290
I1
aI2
aaa(lp6291
I3
a(lp6292
I1
aI2
aaa(lp6293
I4
a(lp6294
I1
aI3
aaa(lp6295
I5
a(lp6296
I1
aI3
aaa(lp6297
I6
a(lp6298
I1
aI3
aaa(lp6299
I7
a(lp6300
I1
aI3
aaa(lp6301
I0
a(lp6302
I1
aI2
aaa(lp6303
I1
a(lp6304
I1
aI2
aaa(lp6305
I2
a(lp6306
I1
aI2
aaa(lp6307
I3
a(lp6308
I1
aI2
aaa(lp6309
I4
a(lp6310
I1
aI3
aaa(lp6311
I5
a(lp6312
I1
aI3
aaa(lp6313
I6
a(lp6314
I1
aI3
aaa(lp6315
I7
a(lp6316
I1
aI3
aaa(lp6317
I0
a(lp6318
I1
aI2
aaa(lp6319
I1
a(lp6320
I1
aI2
aaa(lp6321
I2
a(lp6322
I1
aI2
aaa(lp6323
I3
a(lp6324
I1
aI2
aaa(lp6325
I4
a(lp6326
I1
aI3
aaa(lp6327
I5
a(lp6328
I1
aI3
aaa(lp6329
I6
a(lp6330
I1
aI3
aaa(lp6331
I7
a(lp6332
I1
aI3
aaa(lp6333
I0
a(lp6334
I2
aI1
aaa(lp6335
I1
a(lp6336
I1
aI2
aaa(lp6337
I2
a(lp6338
I1
aI2
aaa(lp6339
I3
a(lp6340
I1
aI2
aaa(lp6341
I4
a(lp6342
I1
aI3
aaa(lp6343
I5
a(lp6344
I1
aI3
aaa(lp6345
I6
a(lp6346
I1
aI3
aaa(lp6347
I7
a(lp6348
I1
aI3
aaa(lp6349
I0
a(lp6350
I1
aI2
aaa(lp6351
I1
a(lp6352
I1
aI2
aaa(lp6353
I2
a(lp6354
I1
aI2
aaa(lp6355
I3
a(lp6356
I1
aI2
aaa(lp6357
I4
a(lp6358
I1
aI3
aaa(lp6359
I5
a(lp6360
I1
aI3
aaa(lp6361
I6
a(lp6362
I1
aI3
aaa(lp6363
I7
a(lp6364
I1
aI3
aaa(lp6365
I0
a(lp6366
I1
aI2
aaa(lp6367
I1
a(lp6368
I1
aI2
aaa(lp6369
I2
a(lp6370
I1
aI2
aaa(lp6371
I3
a(lp6372
I1
aI2
aaa(lp6373
I4
a(lp6374
I1
aI3
aaa(lp6375
I5
a(lp6376
I1
aI3
aaa(lp6377
I6
a(lp6378
I1
aI3
aaa(lp6379
I7
a(lp6380
I1
aI3
aaaa(lp6381
(lp6382
I0
a(lp6383
I1
aI2
aaa(lp6384
I1
a(lp6385
I1
aI2
aaa(lp6386
I2
a(lp6387
I1
aI2
aaa(lp6388
I3
a(lp6389
I1
aI2
aaa(lp6390
I4
a(lp6391
I1
aI3
aaa(lp6392
I5
a(lp6393
I1
aI3
aaa(lp6394
I6
a(lp6395
I1
aI3
aaa(lp6396
I7
a(lp6397
I1
aI3
aaa(lp6398
I0
a(lp6399
I1
aI2
aaa(lp6400
I1
a(lp6401
I1
aI2
aaa(lp6402
I2
a(lp6403
I1
aI2
aaa(lp6404
I3
a(lp6405
I1
aI2
aaa(lp6406
I4
a(lp6407
I1
aI3
aaa(lp6408
I5
a(lp6409
I1
aI3
aaa(lp6410
I6
a(lp6411
I1
aI3
aaa(lp6412
I7
a(lp6413
I1
aI3
aaa(lp6414
I0
a(lp6415
I1
aI2
aaa(lp6416
I1
a(lp6417
I1
aI2
aaa(lp6418
I2
a(lp6419
I1
aI2
aaa(lp6420
I3
a(lp6421
I1
aI2
aaa(lp6422
I4
a(lp6423
I1
aI3
aaa(lp6424
I5
a(lp6425
I1
aI3
aaa(lp6426
I6
a(lp6427
I1
aI3
aaa(lp6428
I7
a(lp6429
I1
aI3
aaa(lp6430
I0
a(lp6431
I1
aI2
aaa(lp6432
I1
a(lp6433
I1
aI2
aaa(lp6434
I2
a(lp6435
I1
aI2
aaa(lp6436
I3
a(lp6437
I1
aI2
aaa(lp6438
I4
a(lp6439
I1
aI3
aaa(lp6440
I5
a(lp6441
I1
aI3
aaa(lp6442
I6
a(lp6443
I1
aI3
aaa(lp6444
I7
a(lp6445
I1
aI3
aaa(lp6446
I0
a(lp6447
I1
aI2
aaa(lp6448
I1
a(lp6449
I1
aI2
aaa(lp6450
I2
a(lp6451
I1
aI2
aaa(lp6452
I3
a(lp6453
I1
aI2
aaa(lp6454
I4
a(lp6455
I1
aI3
aaa(lp6456
I5
a(lp6457
I1
aI3
aaa(lp6458
I6
a(lp6459
I1
aI3
aaa(lp6460
I7
a(lp6461
I1
aI3
aaa(lp6462
I0
a(lp6463
I1
aI2
aaa(lp6464
I1
a(lp6465
I1
aI2
aaa(lp6466
I2
a(lp6467
I1
aI2
aaa(lp6468
I3
a(lp6469
I1
aI2
aaa(lp6470
I4
a(lp6471
I1
aI3
aaa(lp6472
I5
a(lp6473
I1
aI3
aaa(lp6474
I6
a(lp6475
I1
aI3
aaa(lp6476
I7
a(lp6477
I1
aI3
aaa(lp6478
I0
a(lp6479
I1
aI2
aaa(lp6480
I1
a(lp6481
I1
aI2
aaa(lp6482
I2
a(lp6483
I1
aI2
aaa(lp6484
I3
a(lp6485
I1
aI2
aaa(lp6486
I4
a(lp6487
I1
aI3
aaa(lp6488
I5
a(lp6489
I1
aI3
aaa(lp6490
I6
a(lp6491
I1
aI3
aaa(lp6492
I7
a(lp6493
I1
aI3
aaa(lp6494
I0
a(lp6495
I1
aI2
aaa(lp6496
I1
a(lp6497
I1
aI2
aaa(lp6498
I2
a(lp6499
I1
aI2
aaa(lp6500
I3
a(lp6501
I1
aI2
aaa(lp6502
I4
a(lp6503
I1
aI3
aaa(lp6504
I5
a(lp6505
I1
aI3
aaa(lp6506
I6
a(lp6507
I1
aI3
aaa(lp6508
I7
a(lp6509
I1
aI3
aaa(lp6510
I0
a(lp6511
I1
aI2
aaa(lp6512
I1
a(lp6513
I1
aI2
aaa(lp6514
I2
a(lp6515
I1
aI2
aaa(lp6516
I3
a(lp6517
I1
aI2
aaa(lp6518
I4
a(lp6519
I1
aI3
aaa(lp6520
I5
a(lp6521
I1
aI3
aaa(lp6522
I6
a(lp6523
I1
aI3
aaa(lp6524
I7
a(lp6525
I1
aI3
aaaa(lp6526
(lp6527
I0
a(lp6528
I1
aI2
aaa(lp6529
I1
a(lp6530
I1
aI2
aaa(lp6531
I2
a(lp6532
I1
aI2
aaa(lp6533
I3
a(lp6534
I1
aI2
aaa(lp6535
I4
a(lp6536
I1
aI3
aaa(lp6537
I5
a(lp6538
I1
aI3
aaa(lp6539
I6
a(lp6540
I1
aI3
aaa(lp6541
I7
a(lp6542
I1
aI3
aaa(lp6543
I0
a(lp6544
I1
aI2
aaa(lp6545
I1
a(lp6546
I1
aI2
aaa(lp6547
I2
a(lp6548
I1
aI2
aaa(lp6549
I3
a(lp6550
I1
aI2
aaa(lp6551
I4
a(lp6552
I1
aI3
aaa(lp6553
I5
a(lp6554
I1
aI3
aaa(lp6555
I6
a(lp6556
I1
aI3
aaa(lp6557
I7
a(lp6558
I1
aI3
aaa(lp6559
I0
a(lp6560
I1
aI2
aaa(lp6561
I1
a(lp6562
I1
aI2
aaa(lp6563
I2
a(lp6564
I1
aI2
aaa(lp6565
I3
a(lp6566
I1
aI2
aaa(lp6567
I4
a(lp6568
I1
aI3
aaa(lp6569
I5
a(lp6570
I1
aI3
aaa(lp6571
I6
a(lp6572
I1
aI3
aaa(lp6573
I7
a(lp6574
I1
aI3
aaa(lp6575
I0
a(lp6576
I1
aI2
aaa(lp6577
I1
a(lp6578
I1
aI2
aaa(lp6579
I2
a(lp6580
I1
aI2
aaa(lp6581
I3
a(lp6582
I1
aI2
aaa(lp6583
I4
a(lp6584
I1
aI3
aaa(lp6585
I5
a(lp6586
I1
aI3
aaa(lp6587
I6
a(lp6588
I1
aI3
aaa(lp6589
I7
a(lp6590
I1
aI3
aaa(lp6591
I0
a(lp6592
I1
aI2
aaa(lp6593
I1
a(lp6594
I1
aI2
aaa(lp6595
I2
a(lp6596
I1
aI2
aaa(lp6597
I3
a(lp6598
I1
aI2
aaa(lp6599
I4
a(lp6600
I1
aI3
aaa(lp6601
I5
a(lp6602
I1
aI3
aaa(lp6603
I6
a(lp6604
I1
aI3
aaa(lp6605
I7
a(lp6606
I1
aI3
aaa(lp6607
I0
a(lp6608
I1
aI2
aaa(lp6609
I1
a(lp6610
I1
aI2
aaa(lp6611
I2
a(lp6612
I1
aI2
aaa(lp6613
I3
a(lp6614
I1
aI2
aaa(lp6615
I4
a(lp6616
I1
aI3
aaa(lp6617
I5
a(lp6618
I1
aI3
aaa(lp6619
I6
a(lp6620
I1
aI3
aaa(lp6621
I7
a(lp6622
I1
aI3
aaa(lp6623
I0
a(lp6624
I1
aI2
aaa(lp6625
I1
a(lp6626
I1
aI2
aaa(lp6627
I2
a(lp6628
I1
aI2
aaa(lp6629
I3
a(lp6630
I1
aI2
aaa(lp6631
I4
a(lp6632
I1
aI3
aaa(lp6633
I5
a(lp6634
I1
aI3
aaa(lp6635
I6
a(lp6636
I1
aI3
aaa(lp6637
I7
a(lp6638
I1
aI3
aaa(lp6639
I0
a(lp6640
I1
aI2
aaa(lp6641
I1
a(lp6642
I1
aI2
aaa(lp6643
I2
a(lp6644
I1
aI2
aaa(lp6645
I3
a(lp6646
I1
aI2
aaa(lp6647
I4
a(lp6648
I1
aI3
aaa(lp6649
I5
a(lp6650
I1
aI3
aaa(lp6651
I6
a(lp6652
I1
aI3
aaa(lp6653
I7
a(lp6654
I1
aI3
aaa(lp6655
I0
a(lp6656
I1
aI2
aaa(lp6657
I1
a(lp6658
I1
aI2
aaa(lp6659
I2
a(lp6660
I1
aI2
aaa(lp6661
I3
a(lp6662
I1
aI2
aaa(lp6663
I4
a(lp6664
I1
aI3
aaa(lp6665
I5
a(lp6666
I1
aI3
aaa(lp6667
I6
a(lp6668
I1
aI3
aaa(lp6669
I7
a(lp6670
I1
aI3
aaaa(lp6671
(lp6672
I0
a(lp6673
I1
aI2
aaa(lp6674
I1
a(lp6675
I1
aI2
aaa(lp6676
I2
a(lp6677
I1
aI2
aaa(lp6678
I3
a(lp6679
I1
aI2
aaa(lp6680
I4
a(lp6681
I1
aI3
aaa(lp6682
I5
a(lp6683
I1
aI3
aaa(lp6684
I6
a(lp6685
I1
aI3
aaa(lp6686
I7
a(lp6687
I1
aI3
aaa(lp6688
I0
a(lp6689
I1
aI2
aaa(lp6690
I1
a(lp6691
I1
aI2
aaa(lp6692
I2
a(lp6693
I1
aI2
aaa(lp6694
I3
a(lp6695
I1
aI2
aaa(lp6696
I4
a(lp6697
I1
aI3
aaa(lp6698
I5
a(lp6699
I1
aI3
aaa(lp6700
I6
a(lp6701
I1
aI3
aaa(lp6702
I7
a(lp6703
I1
aI3
aaa(lp6704
I0
a(lp6705
I1
aI2
aaa(lp6706
I1
a(lp6707
I1
aI2
aaa(lp6708
I2
a(lp6709
I1
aI2
aaa(lp6710
I3
a(lp6711
I1
aI2
aaa(lp6712
I4
a(lp6713
I1
aI3
aaa(lp6714
I5
a(lp6715
I1
aI3
aaa(lp6716
I6
a(lp6717
I1
aI3
aaa(lp6718
I7
a(lp6719
I1
aI3
aaa(lp6720
I0
a(lp6721
I1
aI2
aaa(lp6722
I1
a(lp6723
I1
aI2
aaa(lp6724
I2
a(lp6725
I1
aI2
aaa(lp6726
I3
a(lp6727
I1
aI2
aaa(lp6728
I4
a(lp6729
I1
aI3
aaa(lp6730
I5
a(lp6731
I1
aI3
aaa(lp6732
I6
a(lp6733
I1
aI3
aaa(lp6734
I7
a(lp6735
I1
aI3
aaa(lp6736
I0
a(lp6737
I1
aI2
aaa(lp6738
I1
a(lp6739
I1
aI2
aaa(lp6740
I2
a(lp6741
I1
aI2
aaa(lp6742
I3
a(lp6743
I1
aI2
aaa(lp6744
I4
a(lp6745
I1
aI3
aaa(lp6746
I5
a(lp6747
I1
aI3
aaa(lp6748
I6
a(lp6749
I1
aI3
aaa(lp6750
I7
a(lp6751
I1
aI3
aaa(lp6752
I0
a(lp6753
I1
aI2
aaa(lp6754
I1
a(lp6755
I1
aI2
aaa(lp6756
I2
a(lp6757
I1
aI2
aaa(lp6758
I3
a(lp6759
I1
aI2
aaa(lp6760
I4
a(lp6761
I1
aI3
aaa(lp6762
I5
a(lp6763
I1
aI3
aaa(lp6764
I6
a(lp6765
I1
aI3
aaa(lp6766
I7
a(lp6767
I1
aI3
aaa(lp6768
I0
a(lp6769
I1
aI2
aaa(lp6770
I1
a(lp6771
I1
aI2
aaa(lp6772
I2
a(lp6773
I1
aI2
aaa(lp6774
I3
a(lp6775
I1
aI2
aaa(lp6776
I4
a(lp6777
I1
aI3
aaa(lp6778
I5
a(lp6779
I1
aI3
aaa(lp6780
I6
a(lp6781
I1
aI3
aaa(lp6782
I7
a(lp6783
I1
aI3
aaa(lp6784
I0
a(lp6785
I1
aI2
aaa(lp6786
I1
a(lp6787
I1
aI2
aaa(lp6788
I2
a(lp6789
I1
aI2
aaa(lp6790
I3
a(lp6791
I1
aI2
aaa(lp6792
I4
a(lp6793
I1
aI3
aaa(lp6794
I5
a(lp6795
I1
aI3
aaa(lp6796
I6
a(lp6797
I1
aI3
aaa(lp6798
I7
a(lp6799
I1
aI3
aaa(lp6800
I0
a(lp6801
I1
aI2
aaa(lp6802
I1
a(lp6803
I1
aI2
aaa(lp6804
I2
a(lp6805
I1
aI2
aaa(lp6806
I3
a(lp6807
I1
aI2
aaa(lp6808
I4
a(lp6809
I1
aI3
aaa(lp6810
I5
a(lp6811
I1
aI3
aaa(lp6812
I6
a(lp6813
I1
aI3
aaa(lp6814
I7
a(lp6815
I1
aI3
aaaa(lp6816
(lp6817
I0
a(lp6818
I1
aI2
aaa(lp6819
I1
a(lp6820
I1
aI2
aaa(lp6821
I2
a(lp6822
I1
aI2
aaa(lp6823
I3
a(lp6824
I1
aI2
aaa(lp6825
I4
a(lp6826
I1
aI3
aaa(lp6827
I5
a(lp6828
I1
aI3
aaa(lp6829
I6
a(lp6830
I1
aI3
aaa(lp6831
I7
a(lp6832
I1
aI3
aaa(lp6833
I0
a(lp6834
I1
aI2
aaa(lp6835
I1
a(lp6836
I1
aI2
aaa(lp6837
I2
a(lp6838
I1
aI2
aaa(lp6839
I3
a(lp6840
I1
aI2
aaa(lp6841
I4
a(lp6842
I1
aI3
aaa(lp6843
I5
a(lp6844
I1
aI3
aaa(lp6845
I6
a(lp6846
I1
aI3
aaa(lp6847
I7
a(lp6848
I1
aI3
aaa(lp6849
I0
a(lp6850
I1
aI2
aaa(lp6851
I1
a(lp6852
I1
aI2
aaa(lp6853
I2
a(lp6854
I1
aI2
aaa(lp6855
I3
a(lp6856
I1
aI2
aaa(lp6857
I4
a(lp6858
I1
aI3
aaa(lp6859
I5
a(lp6860
I1
aI3
aaa(lp6861
I6
a(lp6862
I1
aI3
aaa(lp6863
I7
a(lp6864
I1
aI3
aaa(lp6865
I0
a(lp6866
I1
aI2
aaa(lp6867
I1
a(lp6868
I1
aI2
aaa(lp6869
I2
a(lp6870
I1
aI2
aaa(lp6871
I3
a(lp6872
I1
aI2
aaa(lp6873
I4
a(lp6874
I1
aI3
aaa(lp6875
I5
a(lp6876
I1
aI3
aaa(lp6877
I6
a(lp6878
I1
aI3
aaa(lp6879
I7
a(lp6880
I1
aI3
aaa(lp6881
I0
a(lp6882
I1
aI2
aaa(lp6883
I1
a(lp6884
I1
aI2
aaa(lp6885
I2
a(lp6886
I1
aI2
aaa(lp6887
I3
a(lp6888
I1
aI2
aaa(lp6889
I4
a(lp6890
I1
aI3
aaa(lp6891
I5
a(lp6892
I1
aI3
aaa(lp6893
I6
a(lp6894
I1
aI3
aaa(lp6895
I7
a(lp6896
I1
aI3
aaa(lp6897
I0
a(lp6898
I1
aI2
aaa(lp6899
I1
a(lp6900
I1
aI2
aaa(lp6901
I2
a(lp6902
I1
aI2
aaa(lp6903
I3
a(lp6904
I1
aI2
aaa(lp6905
I4
a(lp6906
I1
aI3
aaa(lp6907
I5
a(lp6908
I1
aI3
aaa(lp6909
I6
a(lp6910
I1
aI3
aaa(lp6911
I7
a(lp6912
I1
aI3
aaa(lp6913
I0
a(lp6914
I1
aI2
aaa(lp6915
I1
a(lp6916
I1
aI2
aaa(lp6917
I2
a(lp6918
I1
aI2
aaa(lp6919
I3
a(lp6920
I1
aI2
aaa(lp6921
I4
a(lp6922
I1
aI3
aaa(lp6923
I5
a(lp6924
I1
aI3
aaa(lp6925
I6
a(lp6926
I1
aI3
aaa(lp6927
I7
a(lp6928
I1
aI3
aaa(lp6929
I0
a(lp6930
I1
aI2
aaa(lp6931
I1
a(lp6932
I1
aI2
aaa(lp6933
I2
a(lp6934
I1
aI2
aaa(lp6935
I3
a(lp6936
I1
aI2
aaa(lp6937
I4
a(lp6938
I1
aI3
aaa(lp6939
I5
a(lp6940
I1
aI3
aaa(lp6941
I6
a(lp6942
I1
aI3
aaa(lp6943
I7
a(lp6944
I1
aI3
aaa(lp6945
I0
a(lp6946
I1
aI2
aaa(lp6947
I1
a(lp6948
I1
aI2
aaa(lp6949
I2
a(lp6950
I1
aI2
aaa(lp6951
I3
a(lp6952
I1
aI2
aaa(lp6953
I4
a(lp6954
I1
aI3
aaa(lp6955
I5
a(lp6956
I1
aI3
aaa(lp6957
I6
a(lp6958
I1
aI3
aaa(lp6959
I7
a(lp6960
I1
aI3
aaaa(lp6961
(lp6962
I0
a(lp6963
I1
aI2
aaa(lp6964
I1
a(lp6965
I2
aI1
aaa(lp6966
I2
a(lp6967
I1
aI2
aaa(lp6968
I3
a(lp6969
I1
aI2
aaa(lp6970
I4
a(lp6971
I1
aI3
aaa(lp6972
I5
a(lp6973
I1
aI3
aaa(lp6974
I6
a(lp6975
I1
aI3
aaa(lp6976
I7
a(lp6977
I1
aI3
aaa(lp6978
I0
a(lp6979
I1
aI2
aaa(lp6980
I1
a(lp6981
I1
aI2
aaa(lp6982
I2
a(lp6983
I1
aI2
aaa(lp6984
I3
a(lp6985
I1
aI2
aaa(lp6986
I4
a(lp6987
I1
aI3
aaa(lp6988
I5
a(lp6989
I1
aI3
aaa(lp6990
I6
a(lp6991
I1
aI3
aaa(lp6992
I7
a(lp6993
I1
aI3
aaa(lp6994
I0
a(lp6995
I1
aI2
aaa(lp6996
I1
a(lp6997
I1
aI2
aaa(lp6998
I2
a(lp6999
I1
aI2
aaa(lp7000
I3
a(lp7001
I1
aI2
aaa(lp7002
I4
a(lp7003
I1
aI3
aaa(lp7004
I5
a(lp7005
I1
aI3
aaa(lp7006
I6
a(lp7007
I1
aI3
aaa(lp7008
I7
a(lp7009
I1
aI3
aaa(lp7010
I0
a(lp7011
I1
aI2
aaa(lp7012
I1
a(lp7013
I1
aI2
aaa(lp7014
I2
a(lp7015
I1
aI2
aaa(lp7016
I3
a(lp7017
I1
aI2
aaa(lp7018
I4
a(lp7019
I1
aI3
aaa(lp7020
I5
a(lp7021
I1
aI3
aaa(lp7022
I6
a(lp7023
I1
aI3
aaa(lp7024
I7
a(lp7025
I1
aI3
aaa(lp7026
I0
a(lp7027
I1
aI2
aaa(lp7028
I1
a(lp7029
I1
aI2
aaa(lp7030
I2
a(lp7031
I1
aI2
aaa(lp7032
I3
a(lp7033
I1
aI2
aaa(lp7034
I4
a(lp7035
I1
aI3
aaa(lp7036
I5
a(lp7037
I1
aI3
aaa(lp7038
I6
a(lp7039
I1
aI3
aaa(lp7040
I7
a(lp7041
I1
aI3
aaa(lp7042
I0
a(lp7043
I1
aI2
aaa(lp7044
I1
a(lp7045
I1
aI2
aaa(lp7046
I2
a(lp7047
I1
aI2
aaa(lp7048
I3
a(lp7049
I1
aI2
aaa(lp7050
I4
a(lp7051
I1
aI3
aaa(lp7052
I5
a(lp7053
I1
aI3
aaa(lp7054
I6
a(lp7055
I1
aI3
aaa(lp7056
I7
a(lp7057
I1
aI3
aaa(lp7058
I0
a(lp7059
I1
aI2
aaa(lp7060
I1
a(lp7061
I1
aI2
aaa(lp7062
I2
a(lp7063
I1
aI2
aaa(lp7064
I3
a(lp7065
I1
aI2
aaa(lp7066
I4
a(lp7067
I1
aI3
aaa(lp7068
I5
a(lp7069
I1
aI3
aaa(lp7070
I6
a(lp7071
I1
aI3
aaa(lp7072
I7
a(lp7073
I1
aI3
aaa(lp7074
I0
a(lp7075
I1
aI2
aaa(lp7076
I1
a(lp7077
I1
aI2
aaa(lp7078
I2
a(lp7079
I1
aI2
aaa(lp7080
I3
a(lp7081
I1
aI2
aaa(lp7082
I4
a(lp7083
I1
aI3
aaa(lp7084
I5
a(lp7085
I1
aI3
aaa(lp7086
I6
a(lp7087
I1
aI3
aaa(lp7088
I7
a(lp7089
I1
aI3
aaa(lp7090
I0
a(lp7091
I1
aI2
aaa(lp7092
I1
a(lp7093
I1
aI2
aaa(lp7094
I2
a(lp7095
I1
aI2
aaa(lp7096
I3
a(lp7097
I1
aI2
aaa(lp7098
I4
a(lp7099
I1
aI3
aaa(lp7100
I5
a(lp7101
I1
aI3
aaa(lp7102
I6
a(lp7103
I1
aI3
aaa(lp7104
I7
a(lp7105
I1
aI3
aaaa(lp7106
(lp7107
I0
a(lp7108
I1
aI2
aaa(lp7109
I1
a(lp7110
I1
aI2
aaa(lp7111
I2
a(lp7112
I1
aI2
aaa(lp7113
I3
a(lp7114
I1
aI2
aaa(lp7115
I4
a(lp7116
I1
aI3
aaa(lp7117
I5
a(lp7118
I1
aI3
aaa(lp7119
I6
a(lp7120
I1
aI3
aaa(lp7121
I7
a(lp7122
I1
aI3
aaa(lp7123
I0
a(lp7124
I1
aI2
aaa(lp7125
I1
a(lp7126
I1
aI2
aaa(lp7127
I2
a(lp7128
I1
aI2
aaa(lp7129
I3
a(lp7130
I1
aI2
aaa(lp7131
I4
a(lp7132
I1
aI3
aaa(lp7133
I5
a(lp7134
I1
aI3
aaa(lp7135
I6
a(lp7136
I1
aI3
aaa(lp7137
I7
a(lp7138
I1
aI3
aaa(lp7139
I0
a(lp7140
I1
aI2
aaa(lp7141
I1
a(lp7142
I1
aI2
aaa(lp7143
I2
a(lp7144
I1
aI2
aaa(lp7145
I3
a(lp7146
I1
aI2
aaa(lp7147
I4
a(lp7148
I1
aI3
aaa(lp7149
I5
a(lp7150
I1
aI3
aaa(lp7151
I6
a(lp7152
I1
aI3
aaa(lp7153
I7
a(lp7154
I1
aI3
aaa(lp7155
I0
a(lp7156
I2
aI1
aaa(lp7157
I1
a(lp7158
I1
aI2
aaa(lp7159
I2
a(lp7160
I1
aI2
aaa(lp7161
I3
a(lp7162
I1
aI2
aaa(lp7163
I4
a(lp7164
I1
aI3
aaa(lp7165
I5
a(lp7166
I1
aI3
aaa(lp7167
I6
a(lp7168
I1
aI3
aaa(lp7169
I7
a(lp7170
I1
aI3
aaa(lp7171
I0
a(lp7172
I1
aI2
aaa(lp7173
I1
a(lp7174
I1
aI2
aaa(lp7175
I2
a(lp7176
I1
aI2
aaa(lp7177
I3
a(lp7178
I1
aI2
aaa(lp7179
I4
a(lp7180
I1
aI3
aaa(lp7181
I5
a(lp7182
I1
aI3
aaa(lp7183
I6
a(lp7184
I1
aI3
aaa(lp7185
I7
a(lp7186
I1
aI3
aaa(lp7187
I0
a(lp7188
I1
aI2
aaa(lp7189
I1
a(lp7190
I1
aI2
aaa(lp7191
I2
a(lp7192
I1
aI2
aaa(lp7193
I3
a(lp7194
I1
aI2
aaa(lp7195
I4
a(lp7196
I1
aI3
aaa(lp7197
I5
a(lp7198
I1
aI3
aaa(lp7199
I6
a(lp7200
I1
aI3
aaa(lp7201
I7
a(lp7202
I1
aI3
aaa(lp7203
I0
a(lp7204
I1
aI2
aaa(lp7205
I1
a(lp7206
I1
aI2
aaa(lp7207
I2
a(lp7208
I1
aI2
aaa(lp7209
I3
a(lp7210
I1
aI2
aaa(lp7211
I4
a(lp7212
I1
aI3
aaa(lp7213
I5
a(lp7214
I1
aI3
aaa(lp7215
I6
a(lp7216
I1
aI3
aaa(lp7217
I7
a(lp7218
I1
aI3
aaa(lp7219
I0
a(lp7220
I1
aI2
aaa(lp7221
I1
a(lp7222
I1
aI2
aaa(lp7223
I2
a(lp7224
I1
aI2
aaa(lp7225
I3
a(lp7226
I1
aI2
aaa(lp7227
I4
a(lp7228
I1
aI3
aaa(lp7229
I5
a(lp7230
I1
aI3
aaa(lp7231
I6
a(lp7232
I1
aI3
aaa(lp7233
I7
a(lp7234
I1
aI3
aaa(lp7235
I0
a(lp7236
I1
aI2
aaa(lp7237
I1
a(lp7238
I1
aI2
aaa(lp7239
I2
a(lp7240
I1
aI2
aaa(lp7241
I3
a(lp7242
I1
aI2
aaa(lp7243
I4
a(lp7244
I1
aI3
aaa(lp7245
I5
a(lp7246
I1
aI3
aaa(lp7247
I6
a(lp7248
I1
aI3
aaa(lp7249
I7
a(lp7250
I1
aI3
aaaa.